
 Start         Length     Name                   Class
 0002:00000000 00019048H  _TEXT                  CODE 32-bit
 0002:00019048 00000AECH  ICODE                  ICODE 32-bit
 0003:00000000 00000004H  .CRT$XIA               DATA 32-bit
 0003:00000010 00000004H  .CRT$XIZ               DATA 32-bit
 0003:00000020 00000004H  .CRT$XCA               DATA 32-bit
 0003:00000030 00000004H  .CRT$XCZ               DATA 32-bit
 0003:00000040 00000004H  .CRT$XPA               DATA 32-bit
 0003:00000050 00000004H  .CRT$XPZ               DATA 32-bit
 0003:00000060 00000004H  .CRT$XTA               DATA 32-bit
 0003:00000070 00000004H  .CRT$XTZ               DATA 32-bit
 0003:00000074 00000154H  IMP__DATA              IMP__DATA 32-bit
 0003:000001D0 0001AA80H  _DATA                  DATA 32-bit
 0003:0001AC50 00000000H  FJB                    DATA 32-bit
 0003:0001AC50 00000150H  FJ                     DATA 32-bit
 0003:0001ADA0 00000004H  FJE                    DATA 32-bit
 0003:0001ADB0 00000000H  FHB                    DATA 32-bit
 0003:0001ADB0 00000034H  FH                     DATA 32-bit
 0003:0001ADE4 00000000H  FHE                    DATA 32-bit
 0003:0001ADE4 00000000H  XIFCB                  DATA 32-bit
 0003:0001ADE4 00000004H  XIFU                   DATA 32-bit
 0003:0001ADE8 00000000H  XIFL                   DATA 32-bit
 0003:0001ADE8 00000004H  XIFM                   DATA 32-bit
 0003:0001ADEC 00000000H  XIFCE                  DATA 32-bit
 0003:0001ADEC 00000000H  XIB                    DATA 32-bit
 0003:0001ADEC 00000004H  XI                     DATA 32-bit
 0003:0001ADF0 00000000H  XIE                    DATA 32-bit
 0003:0001ADF0 00000000H  XCB                    DATA 32-bit
 0003:0001ADF0 00000004H  XC                     DATA 32-bit
 0003:0001ADF4 00000000H  XCE                    DATA 32-bit
 0003:0001AE00 00000000H  CONST                  CONST 32-bit
 0003:0001AE00 00000000H  EEND                   ENDBSS 32-bit
 0003:0001AE00 000006B0H  _BSS                   BSS 32-bit
 0003:0001B4B0 00000000H  XOB                    BSS 32-bit
 0003:0001B4B0 00000004H  XO                     BSS 32-bit
 0003:0001B4B4 00000000H  XOE                    BSS 32-bit
 0003:0001B4B4 00000000H  XOFB                   BSS 32-bit
 0003:0001B4B4 00000104H  XOF                    BSS 32-bit
 0003:0001B5B8 00000000H  XOFE                   BSS 32-bit
 0003:0001B5C0 000007BDH  c_common               BSS 32-bit
 0003:0001BD80 00000000H  STACK                  STACK 32-bit

  Address         Publics by Name               Rva+Base

 0002:00017770       ??0RTLHeap@@QAE@XZ         0041E770
 0002:000179F0       ??0RTLHeapBlock@@QAE@IAAV0@@Z 0041E9F0
 0002:000179DC       ??0RTLHeapBlock@@QAE@XZ    0041E9DC
 0002:000179C0       ??0RTLHeapBlockHeader@@QAE@I@Z 0041E9C0
 0002:00016724       ??0RTLMultiPool@@QAE@II@Z  0041D724
 0002:0001763C       ??0RTLPool@@QAE@II@Z       0041E63C
 0002:000167A8       ??1RTLMultiPool@@QAE@XZ    0041D7A8
 0002:000177C8       ?Alloc@RTLHeap@@QAEPAXK@Z  0041E7C8
 0002:000167AC       ?Alloc@RTLMultiPool@@QAEPAXK@Z 0041D7AC
 0002:0001772C       ?Alloc@RTLPool@@QAEPAXXZ   0041E72C
 0002:00017AE8       ?Claim@RTLHeapBlock@@QAEHI@Z 0041EAE8
 0002:00017B90       ?CreateMainHeap@RTLHeap@@SAXXZ 0041EB90
 0002:00016970       ?CreateMainHeap@RTLMultiPool@@SAXXZ 0041D970
 0002:0001778C       ?FixSize@RTLHeap@@AAEII@Z  0041E78C
 0002:00017970       ?Free@RTLHeap@@QAEXPAX@Z   0041E970
 0002:00016958       ?Free@RTLMultiPool@@QAEXPAX@Z 0041D958
 0002:0001775C       ?Free@RTLPool@@QAEXPAX@Z   0041E75C
 0002:00017AC4       ?GetNext@RTLHeapBlock@@QAEAAV1@XZ 0041EAC4
 0002:00017A10       ?InsertAfter@RTLHeapBlock@@QAEXAAV1@@Z 0041EA10
 0002:00017A38       ?MergeBackward@RTLHeapBlock@@QAEHXZ 0041EA38
 0002:00017A78       ?MergeForward@RTLHeapBlock@@QAEHXZ 0041EA78
 0002:00017900       ?MoreCore@RTLHeap@@AAEPAVRTLHeapBlock@@I@Z 0041E900
 0002:0001782C       ?Realloc@RTLHeap@@QAEPAXPAXK@Z 0041E82C
 0002:000167FC       ?Realloc@RTLMultiPool@@QAEPAXPAXK@Z 0041D7FC
 0002:00017B1C       ?Reclaim@RTLHeapBlock@@QAEHIAAV1@@Z 0041EB1C
 0002:00017ACC       ?Remove@RTLHeapBlock@@QAEXXZ 0041EACC
 0002:0001691C       ?SelectFree@RTLMultiPool@@AAEXPAX@Z 0041D91C
 0002:000176A0       ?ThreadNewBlock@RTLPool@@AAEXXZ 0041E6A0
 0002:00018B1E       ?_STD_VEDBTR_EndServiceThread@@YAXXZ 0041FB1E
 0002:000180C4       ?exitFromMain@@YAXXZ       0041F0C4
 0003:0001BD70       ?exitval@@3HA              0043CD70
 0003:0001A8F8       ?pMainHeap@RTLHeap@@0PAV1@A 0043B8F8
 0003:0001A4C4       ?pMainHeap@RTLMultiPool@@0PAV1@A 0043B4C4
 0003:0001A8F4       ?pPools@RTLPool@@0PAV1@A   0043B8F4
 0002:000079C0       _$AboutDialog_00024SymAction__4init_5__LAboutDialog_2 0040E9C0
 0002:00007978       _$AboutDialog_00024SymAction_actionPerformed__Ljava_awt_event_ActionEvent_2 0040E978
 0002:00007950       _$AboutDialog_00024SymWindow__4init_5__LAboutDialog_2 0040E950
 0002:0000790C       _$AboutDialog_00024SymWindow_windowClosing__Ljava_awt_event_WindowEvent_2 0040E90C
 0002:000078D4       _$AboutDialog_AboutDialog_1WindowClosing__Ljava_awt_event_WindowEvent_2 0040E8D4
 0002:00007684       _$AboutDialog__4init_5__Ljava_awt_Frame_2Ljava_lang_String_2Z 0040E684
 0002:0000737C       _$AboutDialog__4init_5__Ljava_awt_Frame_2Z 0040E37C
 0002:000076BC       _$AboutDialog_addNotify__  0040E6BC
 0002:000078F0       _$AboutDialog_okButton_1Clicked__Ljava_awt_event_ActionEvent_2 0040E8F0
 0002:00007838       _$AboutDialog_setVisible__Z 0040E838
 0003:00009920       _$ClassAboutDialog         0042A920
 0003:0000A1C0       _$ClassAboutDialog_9SymAction 0042B1C0
 0003:00009FD0       _$ClassAboutDialog_9SymWindow 0042AFD0
 0003:00006030       _$ClassConfirmarSalvarDialog 00427030
 0003:00006A00       _$ClassConfirmarSalvarDialog_9SymAction 00427A00
 0003:000067F0       _$ClassConfirmarSalvarDialog_9SymWindow 004277F0
 0003:0000EE60       _$ClassContextoDialog      0042FE60
 0003:0000FCE0       _$ClassContextoDialog_9SymAction 00430CE0
 0003:0000FAB0       _$ClassContextoDialog_9SymWindow 00430AB0
 0003:0000B6A0       _$ClassDFDDialog           0042C6A0
 0003:0000C5D0       _$ClassDFDDialog_9SymAction 0042D5D0
 0003:0000C3B0       _$ClassDFDDialog_9SymWindow 0042D3B0
 0003:00014450       _$ClassDiagramaCanvas      00435450
 0003:00014E00       _$ClassDiagramaCanvas_9DiagramaCanvasMouseListener 00435E00
 0003:00015040       _$ClassDiagramaCanvas_9DiagramaCanvasMouseMotionListener 00436040
 0003:00000AC0       _$ClassEditarDepositoDialog 00421AC0
 0003:00001790       _$ClassEditarDepositoDialog_9SymAction 00422790
 0003:00001970       _$ClassEditarDepositoDialog_9SymFocus 00422970
 0003:00001550       _$ClassEditarDepositoDialog_9SymWindow 00422550
 0003:000154D0       _$ClassEditarEntidadeDialog 004364D0
 0003:00016020       _$ClassEditarEntidadeDialog_9SymAction 00437020
 0003:00016200       _$ClassEditarEntidadeDialog_9SymFocus 00437200
 0003:00015DE0       _$ClassEditarEntidadeDialog_9SymWindow 00436DE0
 0003:00012EF0       _$ClassEditarEventoDialog  00433EF0
 0003:00013D60       _$ClassEditarEventoDialog_9SymAction 00434D60
 0003:00014120       _$ClassEditarEventoDialog_9SymFocus 00435120
 0003:00013F40       _$ClassEditarEventoDialog_9SymItem 00434F40
 0003:00013B60       _$ClassEditarEventoDialog_9SymWindow 00434B60
 0003:00016790       _$ClassEditarFluxoDialog   00437790
 0003:000173B0       _$ClassEditarFluxoDialog_9SymAction 004383B0
 0003:00017590       _$ClassEditarFluxoDialog_9SymFocus 00438590
 0003:00017170       _$ClassEditarFluxoDialog_9SymWindow 00438170
 0003:00018460       _$ClassEditarProcessoDialog 00439460
 0003:000190C0       _$ClassEditarProcessoDialog_9SymAction 0043A0C0
 0003:000192A0       _$ClassEditarProcessoDialog_9SymFocus 0043A2A0
 0003:00018E80       _$ClassEditarProcessoDialog_9SymWindow 00439E80
 0003:000050D0       _$ClassEditarProjetoDialog 004260D0
 0003:00005CE0       _$ClassEditarProjetoDialog_9SymAction 00426CE0
 0003:00005AE0       _$ClassEditarProjetoDialog_9SymWindow 00426AE0
 0003:000101D0       _$ClassEntidadesDialog     004311D0
 0003:00010E30       _$ClassEntidadesDialog_9SymAction 00431E30
 0003:00011000       _$ClassEntidadesDialog_9SymMouse 00432000
 0003:00010BF0       _$ClassEntidadesDialog_9SymWindow 00431BF0
 0003:00011750       _$ClassEventosDialog       00432750
 0003:00012580       _$ClassEventosDialog_9SymAction 00433580
 0003:00012750       _$ClassEventosDialog_9SymItem 00433750
 0003:00012920       _$ClassEventosDialog_9SymMouse 00433920
 0003:00012350       _$ClassEventosDialog_9SymWindow 00433350
 0003:00007C60       _$ClassPowerCase           00428C60
 0003:00009540       _$ClassPowerCase_9SymAction 0042A540
 0003:00009320       _$ClassPowerCase_9SymWindow 0042A320
 0003:0000A4C0       _$ClassQuitDialog          0042B4C0
 0003:0000AD20       _$ClassQuitDialog_9SymAction 0042BD20
 0003:0000AB30       _$ClassQuitDialog_9SymWindow 0042BB30
 0003:00001F00       _$ClassSelecionarDepositoDialog 00422F00
 0003:00002BC0       _$ClassSelecionarDepositoDialog_9SymAction 00423BC0
 0003:00002DB0       _$ClassSelecionarDepositoDialog_9SymMouse 00423DB0
 0003:000029B0       _$ClassSelecionarDepositoDialog_9SymWindow 004239B0
 0003:00003B00       _$ClassSelecionarEntidadeDialog 00424B00
 0003:000047C0       _$ClassSelecionarEntidadeDialog_9SymAction 004257C0
 0003:000049B0       _$ClassSelecionarEntidadeDialog_9SymMouse 004259B0
 0003:000045B0       _$ClassSelecionarEntidadeDialog_9SymWindow 004255B0
 0003:00003040       _$ClassSplashWindow        00424040
 0003:000035A0       _$ClassSplashWindow_9SymMouse 004245A0
 0003:000001D0       _$ClassYourdon_Deposito    004211D0
 0003:0000CD70       _$ClassYourdon_Diagrama    0042DD70
 0003:0000D650       _$ClassYourdon_ElementoEssencial 0042E650
 0003:0000D9E0       _$ClassYourdon_Entidade    0042E9E0
 0003:000194C0       _$ClassYourdon_Evento      0043A4C0
 0003:00017980       _$ClassYourdon_Fluxo       00438980
 0003:00000340       _$ClassYourdon_ListaDepositos 00421340
 0003:0000E440       _$ClassYourdon_ListaElementos 0042F440
 0003:0000E210       _$ClassYourdon_ListaEntidades 0042F210
 0003:00017E80       _$ClassYourdon_ListaEventos 00438E80
 0003:000177A0       _$ClassYourdon_ListaFluxos 004387A0
 0003:0000E5F0       _$ClassYourdon_ListaProcessos 0042F5F0
 0003:000198B0       _$ClassYourdon_Processo    0043A8B0
 0003:0000C790       _$ClassYourdon_Projeto     0042D790
 0003:0000DCC0       _$ClassYourdon_Simbolo     0042ECC0
 0003:00000680       _$ClassYourdon_SimboloDeposito 00421680
 0003:0000D850       _$ClassYourdon_SimboloEntidade 0042E850
 0003:00017BA0       _$ClassYourdon_SimboloFluxo 00438BA0
 0003:0000DB00       _$ClassYourdon_SimboloMovel 0042EB00
 0003:00019D10       _$ClassYourdon_SimboloProcesso 0043AD10
 0002:0001926A  Imp  _$Classjava_awt_BorderLayout (SNJAWT11.DLL.$Classjava_awt_BorderLayout)
 0002:000197E6  Imp  _$Classjava_awt_Button (SNJAWT11.DLL.$Classjava_awt_Button)
 0002:00019084  Imp  _$Classjava_awt_Canvas (SNJAWT11.DLL.$Classjava_awt_Canvas)
 0002:00019162  Imp  _$Classjava_awt_Checkbox (SNJAWT11.DLL.$Classjava_awt_Checkbox)
 0002:0001905A  Imp  _$Classjava_awt_CheckboxGroup (SNJAWT11.DLL.$Classjava_awt_CheckboxGroup)
 0002:00019156  Imp  _$Classjava_awt_Choice (SNJAWT11.DLL.$Classjava_awt_Choice)
 0002:0001980A  Imp  _$Classjava_awt_Color (SNJAWT11.DLL.$Classjava_awt_Color)
 0002:000191AA  Imp  _$Classjava_awt_Cursor (SNJAWT11.DLL.$Classjava_awt_Cursor)
 0002:0001937E  Imp  _$Classjava_awt_Dialog (SNJAWT11.DLL.$Classjava_awt_Dialog)
 0002:000191BC  Imp  _$Classjava_awt_Dimension (SNJAWT11.DLL.$Classjava_awt_Dimension)
 0002:000192C4  Imp  _$Classjava_awt_FileDialog (SNJAWT11.DLL.$Classjava_awt_FileDialog)
 0002:00019282  Imp  _$Classjava_awt_Font (SNJAWT11.DLL.$Classjava_awt_Font)
 0002:000191E6  Imp  _$Classjava_awt_Frame (SNJAWT11.DLL.$Classjava_awt_Frame)
 0002:000197FE  Imp  _$Classjava_awt_Label (SNJAWT11.DLL.$Classjava_awt_Label)
 0002:00019330  Imp  _$Classjava_awt_List (SNJAWT11.DLL.$Classjava_awt_List)
 0002:000192A0  Imp  _$Classjava_awt_Menu (SNJAWT11.DLL.$Classjava_awt_Menu)
 0002:000192AC  Imp  _$Classjava_awt_MenuBar (SNJAWT11.DLL.$Classjava_awt_MenuBar)
 0002:0001938A  Imp  _$Classjava_awt_MenuContainer (SNJAWT11.DLL.$Classjava_awt_MenuContainer)
 0002:00019294  Imp  _$Classjava_awt_MenuItem (SNJAWT11.DLL.$Classjava_awt_MenuItem)
 0002:00019288  Imp  _$Classjava_awt_MenuShortcut (SNJAWT11.DLL.$Classjava_awt_MenuShortcut)
 0002:00019276  Imp  _$Classjava_awt_Panel (SNJAWT11.DLL.$Classjava_awt_Panel)
 0002:00019198  Imp  _$Classjava_awt_Point (SNJAWT11.DLL.$Classjava_awt_Point)
 0002:0001918C  Imp  _$Classjava_awt_Rectangle (SNJAWT11.DLL.$Classjava_awt_Rectangle)
 0002:000191C8  Imp  _$Classjava_awt_ScrollPane (SNJAWT11.DLL.$Classjava_awt_ScrollPane)
 0002:000192D6  Imp  _$Classjava_awt_TextArea (SNJAWT11.DLL.$Classjava_awt_TextArea)
 0002:000197F2  Imp  _$Classjava_awt_TextField (SNJAWT11.DLL.$Classjava_awt_TextField)
 0002:000192DC  Imp  _$Classjava_awt_Window (SNJAWT11.DLL.$Classjava_awt_Window)
 0002:00019348  Imp  _$Classjava_awt_event_ActionListener (SNJAWT11.DLL.$Classjava_awt_event_ActionListener)
 0002:0001933C  Imp  _$Classjava_awt_event_FocusAdapter (SNJAWT11.DLL.$Classjava_awt_event_FocusAdapter)
 0002:00019342  Imp  _$Classjava_awt_event_FocusListener (SNJAWT11.DLL.$Classjava_awt_event_FocusListener)
 0002:0001914A  Imp  _$Classjava_awt_event_ItemListener (SNJAWT11.DLL.$Classjava_awt_event_ItemListener)
 0002:00019300  Imp  _$Classjava_awt_event_MouseAdapter (SNJAWT11.DLL.$Classjava_awt_event_MouseAdapter)
 0002:00019306  Imp  _$Classjava_awt_event_MouseListener (SNJAWT11.DLL.$Classjava_awt_event_MouseListener)
 0002:00019066  Imp  _$Classjava_awt_event_MouseMotionAdapter (SNJAWT11.DLL.$Classjava_awt_event_MouseMotionAdapter)
 0002:0001906C  Imp  _$Classjava_awt_event_MouseMotionListener (SNJAWT11.DLL.$Classjava_awt_event_MouseMotionListener)
 0002:00019354  Imp  _$Classjava_awt_event_WindowAdapter (SNJAWT11.DLL.$Classjava_awt_event_WindowAdapter)
 0002:000191D4  Imp  _$Classjava_awt_event_WindowEvent (SNJAWT11.DLL.$Classjava_awt_event_WindowEvent)
 0002:0001935A  Imp  _$Classjava_awt_event_WindowListener (SNJAWT11.DLL.$Classjava_awt_event_WindowListener)
 0002:00019384  Imp  _$Classjava_awt_image_ImageObserver (SNJAWT11.DLL.$Classjava_awt_image_ImageObserver)
 0002:0001981C  Imp  _$Classjava_beans_PropertyVetoException (SNJBEANS11.DLL.$Classjava_beans_PropertyVetoException)
 0002:000198FA  Imp  _$Classjava_io_FileInputStream (SNJRT11.DLL.$Classjava_io_FileInputStream)
 0002:000198DC  Imp  _$Classjava_io_FileOutputStream (SNJRT11.DLL.$Classjava_io_FileOutputStream)
 0002:00019930  Imp  _$Classjava_io_IOException (SNJRT11.DLL.$Classjava_io_IOException)
 0002:000198EE  Imp  _$Classjava_io_ObjectInputStream (SNJRT11.DLL.$Classjava_io_ObjectInputStream)
 0002:000198D6  Imp  _$Classjava_io_ObjectOutputStream (SNJRT11.DLL.$Classjava_io_ObjectOutputStream)
 0002:000199A2  Imp  _$Classjava_io_Serializable (SNJRT11.DLL.$Classjava_io_Serializable)
 0002:00019972  Imp  _$Classjava_lang_ArrayIndexOutOfBoundsException (SNJRT11.DLL.$Classjava_lang_ArrayIndexOutOfBoundsException)
 0002:00019936  Imp  _$Classjava_lang_ClassCastException (SNJRT11.DLL.$Classjava_lang_ClassCastException)
 0002:000198B8  Imp  _$Classjava_lang_ClassNotFoundException (SNJRT11.DLL.$Classjava_lang_ClassNotFoundException)
 0002:00019870  Imp  _$Classjava_lang_Exception (SNJRT11.DLL.$Classjava_lang_Exception)
 0002:00019852  Imp  _$Classjava_lang_Integer (SNJRT11.DLL.$Classjava_lang_Integer)
 0002:00019858  Imp  _$Classjava_lang_NumberFormatException (SNJRT11.DLL.$Classjava_lang_NumberFormatException)
 0002:00019924  Imp  _$Classjava_lang_Object (SNJRT11.DLL.$Classjava_lang_Object)
 0002:00019882  Imp  _$Classjava_lang_String (SNJRT11.DLL.$Classjava_lang_String)
 0002:0001996C  Imp  _$Classjava_lang_StringBuffer (SNJRT11.DLL.$Classjava_lang_StringBuffer)
 0002:00019918  Imp  _$Classjava_net_MalformedURLException (SNJRT11.DLL.$Classjava_net_MalformedURLException)
 0002:00019912  Imp  _$Classjava_text_SimpleDateFormat (SNJRT11.DLL.$Classjava_text_SimpleDateFormat)
 0002:000198AC  Imp  _$Classjava_util_Date (SNJRT11.DLL.$Classjava_util_Date)
 0002:0001992A  Imp  _$Classjava_util_EventListener (SNJRT11.DLL.$Classjava_util_EventListener)
 0002:00019888  Imp  _$Classjava_util_Vector (SNJRT11.DLL.$Classjava_util_Vector)
 0002:00019B1C  Imp  _$Classsymantec_itools_awt_ImageButton (symbeans.dll.$Classsymantec_itools_awt_ImageButton)
 0002:00019AF2  Imp  _$Classsymantec_itools_awt_MultiList (symbeans.dll.$Classsymantec_itools_awt_MultiList)
 0002:00019AE6  Imp  _$Classsymantec_itools_awt_RadioButtonGroupPanel (symbeans.dll.$Classsymantec_itools_awt_RadioButtonGroupPanel)
 0002:00019B10  Imp  _$Classsymantec_itools_awt_StatusBar (symbeans.dll.$Classsymantec_itools_awt_StatusBar)
 0002:00019B04  Imp  _$Classsymantec_itools_awt_util_ToolBarPanel (symbeans.dll.$Classsymantec_itools_awt_util_ToolBarPanel)
 0002:00019B2E  Imp  _$Classsymantec_itools_multimedia_ImageViewer (symbeans.dll.$Classsymantec_itools_multimedia_ImageViewer)
 0002:00004464       _$ConfirmarSalvarDialog_00024SymAction__4init_5__LConfirmarSalvarDialog_2 0040B464
 0002:000043D0       _$ConfirmarSalvarDialog_00024SymAction_actionPerformed__Ljava_awt_event_ActionEvent_2 0040B3D0
 0002:000043A8       _$ConfirmarSalvarDialog_00024SymWindow__4init_5__LConfirmarSalvarDialog_2 0040B3A8
 0002:00004364       _$ConfirmarSalvarDialog_00024SymWindow_windowClosing__Ljava_awt_event_WindowEvent_2 0040B364
 0003:00005EC0       _$ConfirmarSalvarDialog_CANCELAR 00426EC0
 0003:00005EC4       _$ConfirmarSalvarDialog_NAO 00426EC4
 0002:00004294       _$ConfirmarSalvarDialog_QuitDialog_1WindowClosing__Ljava_awt_event_WindowEvent_2 0040B294
 0003:00005EC8       _$ConfirmarSalvarDialog_SIM 00426EC8
 0002:00003D68       _$ConfirmarSalvarDialog__4init_5__Ljava_awt_Frame_2 0040AD68
 0002:000041C0       _$ConfirmarSalvarDialog__4init_5__Ljava_awt_Frame_2Ljava_lang_String_2Z 0040B1C0
 0002:00003DBC       _$ConfirmarSalvarDialog__4init_5__Ljava_awt_Frame_2Z 0040ADBC
 0002:00004044       _$ConfirmarSalvarDialog_addNotify__ 0040B044
 0002:00004330       _$ConfirmarSalvarDialog_cancelButton_1ActionPerformed__Ljava_awt_event_ActionEvent_2 0040B330
 0002:00003DA4       _$ConfirmarSalvarDialog_getResposta__ 0040ADA4
 0002:000042FC       _$ConfirmarSalvarDialog_noButton_1Clicked__Ljava_awt_event_ActionEvent_2 0040B2FC
 0002:000041F8       _$ConfirmarSalvarDialog_setVisible__Z 0040B1F8
 0002:000042C8       _$ConfirmarSalvarDialog_yesButton_1Clicked__Ljava_awt_event_ActionEvent_2 0040B2C8
 0002:0000BC88       _$ContextoDialog_00024SymAction__4init_5__LContextoDialog_2 00412C88
 0002:0000BB50       _$ContextoDialog_00024SymAction_actionPerformed__Ljava_awt_event_ActionEvent_2 00412B50
 0002:0000BB28       _$ContextoDialog_00024SymWindow__4init_5__LContextoDialog_2 00412B28
 0002:0000BAA0       _$ContextoDialog_00024SymWindow_windowActivated__Ljava_awt_event_WindowEvent_2 00412AA0
 0002:0000BAE4       _$ContextoDialog_00024SymWindow_windowClosing__Ljava_awt_event_WindowEvent_2 00412AE4
 0002:0000B93C       _$ContextoDialog_ContextoDialog_1WindowActivated__Ljava_awt_event_WindowEvent_2 0041293C
 0002:0000B75C       _$ContextoDialog_Dialog1_1WindowClosing__Ljava_awt_event_WindowEvent_2 0041275C
 0002:0000BA78       _$ContextoDialog__4clinit_5__ 00412A78
 0002:0000AA98       _$ContextoDialog__4init_5__Ljava_awt_Frame_2LYourdon_Projeto_2LYourdon_Diagrama_2 00411A98
 0002:0000B688       _$ContextoDialog__4init_5__Ljava_awt_Frame_2Ljava_lang_String_2Z 00412688
 0002:0000ABF4       _$ContextoDialog__4init_5__Ljava_awt_Frame_2Z 00411BF4
 0002:0000B50C       _$ContextoDialog_addNotify__ 0041250C
 0002:0000B9B8       _$ContextoDialog_ajudaButton_1actionPerformed__Ljava_awt_event_ActionEvent_2 004129B8
 0003:0001ADD4       _$ContextoDialog_areaDesenho 0043BDD4
 0002:0000B87C       _$ContextoDialog_decomporButton_1actionPerformed__Ljava_awt_event_ActionEvent_2 0041287C
 0002:0000B824       _$ContextoDialog_depositoButton_1actionPerformed__Ljava_awt_event_ActionEvent_2 00412824
 0002:0000B8C4       _$ContextoDialog_editarButton_1actionPerformed__Ljava_awt_event_ActionEvent_2 004128C4
 0002:0000B7F8       _$ContextoDialog_entidadeButton_1actionPerformed__Ljava_awt_event_ActionEvent_2 004127F8
 0002:0000B7A8       _$ContextoDialog_excluirButton_1actionPerformed__Ljava_awt_event_ActionEvent_2 004127A8
 0002:0000B850       _$ContextoDialog_fluxoButton_1actionPerformed__Ljava_awt_event_ActionEvent_2 00412850
 0002:0000B7CC       _$ContextoDialog_processoButton_1actionPerformed__Ljava_awt_event_ActionEvent_2 004127CC
 0002:0000B780       _$ContextoDialog_selecionarButton_1actionPerformed__Ljava_awt_event_ActionEvent_2 00412780
 0002:0000B6C0       _$ContextoDialog_setVisible__Z 004126C0
 0002:0000B8A0       _$ContextoDialog_verificarButton_1actionPerformed__Ljava_awt_event_ActionEvent_2 004128A0
 0002:00009594       _$DFDDialog_00024SymAction__4init_5__LDFDDialog_2 00410594
 0002:000093E0       _$DFDDialog_00024SymAction_actionPerformed__Ljava_awt_event_ActionEvent_2 004103E0
 0002:000093B8       _$DFDDialog_00024SymWindow__4init_5__LDFDDialog_2 004103B8
 0002:00009330       _$DFDDialog_00024SymWindow_windowActivated__Ljava_awt_event_WindowEvent_2 00410330
 0002:00009374       _$DFDDialog_00024SymWindow_windowClosing__Ljava_awt_event_WindowEvent_2 00410374
 0002:000091CC       _$DFDDialog_DFDDialog_1WindowActivated__Ljava_awt_event_WindowEvent_2 004101CC
 0002:00008FEC       _$DFDDialog_Dialog1_1WindowClosing__Ljava_awt_event_WindowEvent_2 0040FFEC
 0002:00009308       _$DFDDialog__4clinit_5__   00410308
 0002:00007FEC       _$DFDDialog__4init_5__Ljava_awt_Frame_2LYourdon_Projeto_2LYourdon_Diagrama_2 0040EFEC
 0002:00008F18       _$DFDDialog__4init_5__Ljava_awt_Frame_2Ljava_lang_String_2Z 0040FF18
 0002:00008148       _$DFDDialog__4init_5__Ljava_awt_Frame_2Z 0040F148
 0002:00008D9C       _$DFDDialog_addNotify__    0040FD9C
 0002:00009248       _$DFDDialog_ajudaButton_1actionPerformed__Ljava_awt_event_ActionEvent_2 00410248
 0003:0001ADB4       _$DFDDialog_areaDesenho    0043BDB4
 0002:0000910C       _$DFDDialog_decomporButton_1actionPerformed__Ljava_awt_event_ActionEvent_2 0041010C
 0002:000090B4       _$DFDDialog_depositoButton_1actionPerformed__Ljava_awt_event_ActionEvent_2 004100B4
 0002:00009154       _$DFDDialog_editarButton_1actionPerformed__Ljava_awt_event_ActionEvent_2 00410154
 0002:00009088       _$DFDDialog_entidadeButton_1actionPerformed__Ljava_awt_event_ActionEvent_2 00410088
 0002:00009038       _$DFDDialog_excluirButton_1actionPerformed__Ljava_awt_event_ActionEvent_2 00410038
 0002:000090E0       _$DFDDialog_fluxoButton_1actionPerformed__Ljava_awt_event_ActionEvent_2 004100E0
 0002:0000905C       _$DFDDialog_processoButton_1actionPerformed__Ljava_awt_event_ActionEvent_2 0041005C
 0002:00009010       _$DFDDialog_selecionarButton_1actionPerformed__Ljava_awt_event_ActionEvent_2 00410010
 0002:00008F50       _$DFDDialog_setVisible__Z  0040FF50
 0002:00009130       _$DFDDialog_verificarButton_1actionPerformed__Ljava_awt_event_ActionEvent_2 00410130
 0002:0000FEA0       _$DiagramaCanvas_00024DiagramaCanvasMouseListener__4init_5__LDiagramaCanvas_2 00416EA0
 0002:0000FE18       _$DiagramaCanvas_00024DiagramaCanvasMouseListener_mousePressed__Ljava_awt_event_MouseEvent_2 00416E18
 0002:0000FE5C       _$DiagramaCanvas_00024DiagramaCanvasMouseListener_mouseReleased__Ljava_awt_event_MouseEvent_2 00416E5C
 0002:0000FF0C       _$DiagramaCanvas_00024DiagramaCanvasMouseMotionListener__4init_5__LDiagramaCanvas_2 00416F0C
 0002:0000FEC8       _$DiagramaCanvas_00024DiagramaCanvasMouseMotionListener_mouseDragged__Ljava_awt_event_MouseEvent_2 00416EC8
 0003:00014334       _$DiagramaCanvas_CRIARDEPOSITO 00435334
 0003:0001433C       _$DiagramaCanvas_CRIARENTIDADE 0043533C
 0003:00014330       _$DiagramaCanvas_CRIARFLUXO 00435330
 0003:00014338       _$DiagramaCanvas_CRIARPROCESSO 00435338
 0003:0001ADD8       _$DiagramaCanvas_CURSOR_1CRIAR 0043BDD8
 0003:0001ADDC       _$DiagramaCanvas_CURSOR_1SELECIONAR 0043BDDC
 0003:00014340       _$DiagramaCanvas_SELECIONAR 00435340
 0002:0000FDE0       _$DiagramaCanvas__4clinit_5__ 00416DE0
 0002:0000FBD0       _$DiagramaCanvas__4init_5__Ljava_awt_Frame_2LYourdon_Projeto_2LYourdon_Diagrama_2 00416BD0
 0002:0000FD74       _$DiagramaCanvas_canvas_1MouseDragged__Ljava_awt_event_MouseEvent_2 00416D74
 0002:0000FC68       _$DiagramaCanvas_canvas_1MousePressed__Ljava_awt_event_MouseEvent_2 00416C68
 0002:0000FD58       _$DiagramaCanvas_canvas_1MouseReleased__Ljava_awt_event_MouseEvent_2 00416D58
 0002:0000F2F8       _$DiagramaCanvas_criarDeposito__Ljava_awt_Point_2 004162F8
 0002:0000F874       _$DiagramaCanvas_criarEntidade__Ljava_awt_Point_2 00416874
 0002:0000F3A4       _$DiagramaCanvas_criarFluxo__Ljava_awt_Point_2 004163A4
 0002:0000F5FC       _$DiagramaCanvas_criarProcesso__Ljava_awt_Point_2 004165FC
 0002:0000F934       _$DiagramaCanvas_decomporProcessoSelecionado__ 00416934
 0002:0000F69C       _$DiagramaCanvas_editar__  0041669C
 0002:0000F9A4       _$DiagramaCanvas_excluirSimboloSelecionado__ 004169A4
 0002:0000FAF4       _$DiagramaCanvas_paint__Ljava_awt_Graphics_2 00416AF4
 0002:0000F834       _$DiagramaCanvas_selecionarSimbolo__Ljava_awt_Point_2 00416834
 0002:0000FA70       _$DiagramaCanvas_setEstado__I 00416A70
 0002:0000F80C       _$DiagramaCanvas_update__Ljava_awt_Graphics_2 0041680C
 0002:0000F920       _$DiagramaCanvas_verificarDiagrama__ 00416920
 0002:00000D78       _$EditarDepositoDialog_00024SymAction__4init_5__LEditarDepositoDialog_2 00407D78
 0002:00000CE4       _$EditarDepositoDialog_00024SymAction_actionPerformed__Ljava_awt_event_ActionEvent_2 00407CE4
 0002:00000E30       _$EditarDepositoDialog_00024SymFocus__4init_5__LEditarDepositoDialog_2 00407E30
 0002:00000DE8       _$EditarDepositoDialog_00024SymFocus_focusGained__Ljava_awt_event_FocusEvent_2 00407DE8
 0002:00000DA0       _$EditarDepositoDialog_00024SymFocus_focusLost__Ljava_awt_event_FocusEvent_2 00407DA0
 0002:00000CBC       _$EditarDepositoDialog_00024SymWindow__4init_5__LEditarDepositoDialog_2 00407CBC
 0002:00000C78       _$EditarDepositoDialog_00024SymWindow_windowClosing__Ljava_awt_event_WindowEvent_2 00407C78
 0002:00000C34       _$EditarDepositoDialog_00024SymWindow_windowOpened__Ljava_awt_event_WindowEvent_2 00407C34
 0002:00000A90       _$EditarDepositoDialog_Dialog1_1WindowClosing__Ljava_awt_event_WindowEvent_2 00407A90
 0002:00000B08       _$EditarDepositoDialog_EditarDepositoDialog_1WindowOpened__Ljava_awt_event_WindowEvent_2 00407B08
 0002:00000420       _$EditarDepositoDialog__4init_5__Ljava_awt_Frame_2LYourdon_Deposito_2 00407420
 0002:000009BC       _$EditarDepositoDialog__4init_5__Ljava_awt_Frame_2Ljava_lang_String_2Z 004079BC
 0002:000004C8       _$EditarDepositoDialog__4init_5__Ljava_awt_Frame_2Z 004074C8
 0002:000003A4       _$EditarDepositoDialog_abrir__ 004073A4
 0002:00000840       _$EditarDepositoDialog_addNotify__ 00407840
 0002:00000B24       _$EditarDepositoDialog_buttonAjuda_1ActionPerformed__Ljava_awt_event_ActionEvent_2 00407B24
 0002:00000AB4       _$EditarDepositoDialog_buttonCancelar_1ActionPerformed__Ljava_awt_event_ActionEvent_2 00407AB4
 0002:00000AD0       _$EditarDepositoDialog_buttonOk_1ActionPerformed__Ljava_awt_event_ActionEvent_2 00407AD0
 0002:000003C4       _$EditarDepositoDialog_fechar__ 004073C4
 0002:000003E0       _$EditarDepositoDialog_ok__ 004073E0
 0002:000009F4       _$EditarDepositoDialog_setVisible__Z 004079F4
 0002:00000BE4       _$EditarDepositoDialog_textFieldDescricao_1FocusGained__Ljava_awt_event_FocusEvent_2 00407BE4
 0002:00000C08       _$EditarDepositoDialog_textFieldDescricao_1FocusLost__Ljava_awt_event_FocusEvent_2 00407C08
 0002:00010908       _$EditarEntidadeDialog_00024SymAction__4init_5__LEditarEntidadeDialog_2 00417908
 0002:00010874       _$EditarEntidadeDialog_00024SymAction_actionPerformed__Ljava_awt_event_ActionEvent_2 00417874
 0002:000109C0       _$EditarEntidadeDialog_00024SymFocus__4init_5__LEditarEntidadeDialog_2 004179C0
 0002:00010978       _$EditarEntidadeDialog_00024SymFocus_focusGained__Ljava_awt_event_FocusEvent_2 00417978
 0002:00010930       _$EditarEntidadeDialog_00024SymFocus_focusLost__Ljava_awt_event_FocusEvent_2 00417930
 0002:0001084C       _$EditarEntidadeDialog_00024SymWindow__4init_5__LEditarEntidadeDialog_2 0041784C
 0002:00010808       _$EditarEntidadeDialog_00024SymWindow_windowClosing__Ljava_awt_event_WindowEvent_2 00417808
 0002:000107C4       _$EditarEntidadeDialog_00024SymWindow_windowOpened__Ljava_awt_event_WindowEvent_2 004177C4
 0002:00010620       _$EditarEntidadeDialog_Dialog1_1WindowClosing__Ljava_awt_event_WindowEvent_2 00417620
 0002:00010698       _$EditarEntidadeDialog_EditarEntidadeDialog_1WindowOpened__Ljava_awt_event_WindowEvent_2 00417698
 0002:0000FFB0       _$EditarEntidadeDialog__4init_5__Ljava_awt_Frame_2LYourdon_Entidade_2 00416FB0
 0002:0001054C       _$EditarEntidadeDialog__4init_5__Ljava_awt_Frame_2Ljava_lang_String_2Z 0041754C
 0002:00010058       _$EditarEntidadeDialog__4init_5__Ljava_awt_Frame_2Z 00417058
 0002:0000FF34       _$EditarEntidadeDialog_abrir__ 00416F34
 0002:000103D0       _$EditarEntidadeDialog_addNotify__ 004173D0
 0002:000106B4       _$EditarEntidadeDialog_buttonAjuda_1ActionPerformed__Ljava_awt_event_ActionEvent_2 004176B4
 0002:00010644       _$EditarEntidadeDialog_buttonCancelar_1ActionPerformed__Ljava_awt_event_ActionEvent_2 00417644
 0002:00010660       _$EditarEntidadeDialog_buttonOk_1ActionPerformed__Ljava_awt_event_ActionEvent_2 00417660
 0002:0000FF54       _$EditarEntidadeDialog_fechar__ 00416F54
 0002:0000FF70       _$EditarEntidadeDialog_ok__ 00416F70
 0002:00010584       _$EditarEntidadeDialog_setVisible__Z 00417584
 0002:00010774       _$EditarEntidadeDialog_textFieldDescricao_1FocusGained__Ljava_awt_event_FocusEvent_2 00417774
 0002:00010798       _$EditarEntidadeDialog_textFieldDescricao_1FocusLost__Ljava_awt_event_FocusEvent_2 00417798
 0002:0000F0E8       _$EditarEventoDialog_00024SymAction__4init_5__LEditarEventoDialog_2 004160E8
 0002:0000F054       _$EditarEventoDialog_00024SymAction_actionPerformed__Ljava_awt_event_ActionEvent_2 00416054
 0002:0000F2D0       _$EditarEventoDialog_00024SymFocus__4init_5__LEditarEventoDialog_2 004162D0
 0002:0000F23C       _$EditarEventoDialog_00024SymFocus_focusGained__Ljava_awt_event_FocusEvent_2 0041623C
 0002:0000F1A8       _$EditarEventoDialog_00024SymFocus_focusLost__Ljava_awt_event_FocusEvent_2 004161A8
 0002:0000F180       _$EditarEventoDialog_00024SymItem__4init_5__LEditarEventoDialog_2 00416180
 0002:0000F110       _$EditarEventoDialog_00024SymItem_itemStateChanged__Ljava_awt_event_ItemEvent_2 00416110
 0002:0000F02C       _$EditarEventoDialog_00024SymWindow__4init_5__LEditarEventoDialog_2 0041602C
 0002:0000EFE8       _$EditarEventoDialog_00024SymWindow_windowClosing__Ljava_awt_event_WindowEvent_2 00415FE8
 0002:0000EE8C       _$EditarEventoDialog_Ajudabutton_1ActionPerformed__Ljava_awt_event_ActionEvent_2 00415E8C
 0002:0000ECB4       _$EditarEventoDialog_Cancelarbutton_1ActionPerformed__Ljava_awt_event_ActionEvent_2 00415CB4
 0002:0000EB98       _$EditarEventoDialog_EditarEventoDialog_1WindowClosing__Ljava_awt_event_WindowEvent_2 00415B98
 0002:0000EBBC       _$EditarEventoDialog_OKbutton_1ActionPerformed__Ljava_awt_event_ActionEvent_2 00415BBC
 0002:0000DFA4       _$EditarEventoDialog__4init_5__Ljava_awt_Frame_2LYourdon_ListaEntidades_2LYourdon_Evento_2 00414FA4
 0002:0000DF6C       _$EditarEventoDialog__4init_5__Ljava_awt_Frame_2Ljava_lang_String_2Z 00414F6C
 0002:0000E198       _$EditarEventoDialog__4init_5__Ljava_awt_Frame_2Z 00415198
 0002:0000EA1C       _$EditarEventoDialog_addNotify__ 00415A1C
 0002:0000ED3C       _$EditarEventoDialog_radioButtonEntidade_1ItemStateChanged__Ljava_awt_event_ItemEvent_2 00415D3C
 0002:0000ECEC       _$EditarEventoDialog_radioButtonTemporal_1ItemStateChanged__Ljava_awt_event_ItemEvent_2 00415CEC
 0002:0000EF4C       _$EditarEventoDialog_setVisible__Z 00415F4C
 0002:0000EDEC       _$EditarEventoDialog_textFieldEstimulo_1FocusGained__Ljava_awt_event_FocusEvent_2 00415DEC
 0002:0000EE10       _$EditarEventoDialog_textFieldEstimulo_1FocusLost__Ljava_awt_event_FocusEvent_2 00415E10
 0002:0000ED9C       _$EditarEventoDialog_textFieldEvento_1FocusGained__Ljava_awt_event_FocusEvent_2 00415D9C
 0002:0000EDC0       _$EditarEventoDialog_textFieldEvento_1FocusLost__Ljava_awt_event_FocusEvent_2 00415DC0
 0002:0000EE3C       _$EditarEventoDialog_textFieldResposta_1FocusGained__Ljava_awt_event_FocusEvent_2 00415E3C
 0002:0000EE60       _$EditarEventoDialog_textFieldResposta_1FocusLost__Ljava_awt_event_FocusEvent_2 00415E60
 0002:000115BC       _$EditarFluxoDialog_00024SymAction__4init_5__LEditarFluxoDialog_2 004185BC
 0002:00011528       _$EditarFluxoDialog_00024SymAction_actionPerformed__Ljava_awt_event_ActionEvent_2 00418528
 0002:00011674       _$EditarFluxoDialog_00024SymFocus__4init_5__LEditarFluxoDialog_2 00418674
 0002:0001162C       _$EditarFluxoDialog_00024SymFocus_focusGained__Ljava_awt_event_FocusEvent_2 0041862C
 0002:000115E4       _$EditarFluxoDialog_00024SymFocus_focusLost__Ljava_awt_event_FocusEvent_2 004185E4
 0002:00011500       _$EditarFluxoDialog_00024SymWindow__4init_5__LEditarFluxoDialog_2 00418500
 0002:000114BC       _$EditarFluxoDialog_00024SymWindow_windowClosing__Ljava_awt_event_WindowEvent_2 004184BC
 0002:00011478       _$EditarFluxoDialog_00024SymWindow_windowOpened__Ljava_awt_event_WindowEvent_2 00418478
 0002:000112D4       _$EditarFluxoDialog_Dialog1_1WindowClosing__Ljava_awt_event_WindowEvent_2 004182D4
 0002:0001134C       _$EditarFluxoDialog_EditarFluxoDialog_1WindowOpened__Ljava_awt_event_WindowEvent_2 0041834C
 0002:00010AD0       _$EditarFluxoDialog__4init_5__Ljava_awt_Frame_2LYourdon_Fluxo_2 00417AD0
 0002:00011200       _$EditarFluxoDialog__4init_5__Ljava_awt_Frame_2Ljava_lang_String_2Z 00418200
 0002:00010BD8       _$EditarFluxoDialog__4init_5__Ljava_awt_Frame_2Z 00417BD8
 0002:000109E8       _$EditarFluxoDialog_abrir__ 004179E8
 0002:00011084       _$EditarFluxoDialog_addNotify__ 00418084
 0002:00011368       _$EditarFluxoDialog_buttonAjuda_1ActionPerformed__Ljava_awt_event_ActionEvent_2 00418368
 0002:000112F8       _$EditarFluxoDialog_buttonCancelar_1ActionPerformed__Ljava_awt_event_ActionEvent_2 004182F8
 0002:00011314       _$EditarFluxoDialog_buttonOk_1ActionPerformed__Ljava_awt_event_ActionEvent_2 00418314
 0002:00010A08       _$EditarFluxoDialog_fechar__ 00417A08
 0002:00010A24       _$EditarFluxoDialog_ok__   00417A24
 0002:00011238       _$EditarFluxoDialog_setVisible__Z 00418238
 0002:00011428       _$EditarFluxoDialog_textFieldDescricao_1FocusGained__Ljava_awt_event_FocusEvent_2 00418428
 0002:0001144C       _$EditarFluxoDialog_textFieldDescricao_1FocusLost__Ljava_awt_event_FocusEvent_2 0041844C
 0002:00012EA0       _$EditarProcessoDialog_00024SymAction__4init_5__LEditarProcessoDialog_2 00419EA0
 0002:00012E0C       _$EditarProcessoDialog_00024SymAction_actionPerformed__Ljava_awt_event_ActionEvent_2 00419E0C
 0002:00012FA8       _$EditarProcessoDialog_00024SymFocus__4init_5__LEditarProcessoDialog_2 00419FA8
 0002:00012F38       _$EditarProcessoDialog_00024SymFocus_focusGained__Ljava_awt_event_FocusEvent_2 00419F38
 0002:00012EC8       _$EditarProcessoDialog_00024SymFocus_focusLost__Ljava_awt_event_FocusEvent_2 00419EC8
 0002:00012DE4       _$EditarProcessoDialog_00024SymWindow__4init_5__LEditarProcessoDialog_2 00419DE4
 0002:00012DA0       _$EditarProcessoDialog_00024SymWindow_windowClosing__Ljava_awt_event_WindowEvent_2 00419DA0
 0002:00012D5C       _$EditarProcessoDialog_00024SymWindow_windowOpened__Ljava_awt_event_WindowEvent_2 00419D5C
 0002:00012B68       _$EditarProcessoDialog_EditarProcessoDialog_1WindowClosing__Ljava_awt_event_WindowEvent_2 00419B68
 0002:00012BE0       _$EditarProcessoDialog_EditarProcessoDialog_1WindowOpened__Ljava_awt_event_WindowEvent_2 00419BE0
 0002:000123A4       _$EditarProcessoDialog__4init_5__Ljava_awt_Frame_2LYourdon_Processo_2 004193A4
 0002:00012A94       _$EditarProcessoDialog__4init_5__Ljava_awt_Frame_2Ljava_lang_String_2Z 00419A94
 0002:000124F4       _$EditarProcessoDialog__4init_5__Ljava_awt_Frame_2Z 004194F4
 0002:00012298       _$EditarProcessoDialog_abrir__ 00419298
 0002:00012918       _$EditarProcessoDialog_addNotify__ 00419918
 0002:00012BFC       _$EditarProcessoDialog_buttonAjuda_1ActionPerformed__Ljava_awt_event_ActionEvent_2 00419BFC
 0002:00012B8C       _$EditarProcessoDialog_buttonCancelar_1ActionPerformed__Ljava_awt_event_ActionEvent_2 00419B8C
 0002:00012BA8       _$EditarProcessoDialog_buttonOk_1ActionPerformed__Ljava_awt_event_ActionEvent_2 00419BA8
 0002:000122B8       _$EditarProcessoDialog_fechar__ 004192B8
 0002:000122D4       _$EditarProcessoDialog_ok__ 004192D4
 0002:00012ACC       _$EditarProcessoDialog_setVisible__Z 00419ACC
 0002:00012CBC       _$EditarProcessoDialog_textFieldDescricao_1FocusGained__Ljava_awt_event_FocusEvent_2 00419CBC
 0002:00012D04       _$EditarProcessoDialog_textFieldDescricao_1FocusLost__Ljava_awt_event_FocusEvent_2 00419D04
 0002:00012CE0       _$EditarProcessoDialog_textFieldNumero_1FocusGained__Ljava_awt_event_FocusEvent_2 00419CE0
 0002:00012D30       _$EditarProcessoDialog_textFieldNumero_1FocusLost__Ljava_awt_event_FocusEvent_2 00419D30
 0002:00003D40       _$EditarProjetoDialog_00024SymAction__4init_5__LEditarProjetoDialog_2 0040AD40
 0002:00003CAC       _$EditarProjetoDialog_00024SymAction_actionPerformed__Ljava_awt_event_ActionEvent_2 0040ACAC
 0002:00003C84       _$EditarProjetoDialog_00024SymWindow__4init_5__LEditarProjetoDialog_2 0040AC84
 0002:00003C40       _$EditarProjetoDialog_00024SymWindow_windowClosing__Ljava_awt_event_WindowEvent_2 0040AC40
 0002:00003A70       _$EditarProjetoDialog_EditarProjetoDialog_1WindowClosing__Ljava_awt_event_WindowEvent_2 0040AA70
 0002:00002EC0       _$EditarProjetoDialog__4init_5__Ljava_awt_Frame_2LYourdon_Projeto_2Ljava_lang_String_2 00409EC0
 0002:00003820       _$EditarProjetoDialog__4init_5__Ljava_awt_Frame_2Ljava_lang_String_2Z 0040A820
 0002:00003060       _$EditarProjetoDialog__4init_5__Ljava_awt_Frame_2Z 0040A060
 0002:000038F4       _$EditarProjetoDialog_addNotify__ 0040A8F4
 0002:00003B80       _$EditarProjetoDialog_button2_1ActionPerformed__Ljava_awt_event_ActionEvent_2 0040AB80
 0002:00003B48       _$EditarProjetoDialog_cancel_1pro_1ActionPerformed__Ljava_awt_event_ActionEvent_2 0040AB48
 0002:00003A94       _$EditarProjetoDialog_ok_1pro_1ActionPerformed__Ljava_awt_event_ActionEvent_2 0040AA94
 0002:00003858       _$EditarProjetoDialog_setVisible__Z 0040A858
 0002:0000C998       _$EntidadesDialog_00024SymAction__4init_5__LEntidadesDialog_2 00413998
 0002:0000C8B0       _$EntidadesDialog_00024SymAction_actionPerformed__Ljava_awt_event_ActionEvent_2 004138B0
 0002:0000CA08       _$EntidadesDialog_00024SymMouse__4init_5__LEntidadesDialog_2 00413A08
 0002:0000C9C0       _$EntidadesDialog_00024SymMouse_mouseClicked__Ljava_awt_event_MouseEvent_2 004139C0
 0002:0000C888       _$EntidadesDialog_00024SymWindow__4init_5__LEntidadesDialog_2 00413888
 0002:0000C800       _$EntidadesDialog_00024SymWindow_windowActivated__Ljava_awt_event_WindowEvent_2 00413800
 0002:0000C844       _$EntidadesDialog_00024SymWindow_windowClosing__Ljava_awt_event_WindowEvent_2 00413844
 0002:0000C644       _$EntidadesDialog_Dialog1_1WindowClosing__Ljava_awt_event_WindowEvent_2 00413644
 0002:0000C6F4       _$EntidadesDialog_EntidadesDialog_1WindowActivated__Ljava_awt_event_WindowEvent_2 004136F4
 0002:0000BED0       _$EntidadesDialog__4init_5__Ljava_awt_Frame_2LYourdon_Projeto_2 00412ED0
 0002:0000C570       _$EntidadesDialog__4init_5__Ljava_awt_Frame_2Ljava_lang_String_2Z 00413570
 0002:0000BF74       _$EntidadesDialog__4init_5__Ljava_awt_Frame_2Z 00412F74
 0002:0000C3F4       _$EntidadesDialog_addNotify__ 004133F4
 0002:0000C740       _$EntidadesDialog_ajudaButton_1ActionPerformed__Ljava_awt_event_ActionEvent_2 00413740
 0002:0000BE4C       _$EntidadesDialog_atualizar__ 00412E4C
 0002:0000C684       _$EntidadesDialog_cancelarButton_1ActionPerformed__Ljava_awt_event_ActionEvent_2 00413684
 0002:0000C6BC       _$EntidadesDialog_editarButton_1ActionPerformed__Ljava_awt_event_ActionEvent_2 004136BC
 0002:0000BDBC       _$EntidadesDialog_editar__ 00412DBC
 0002:0000C6D8       _$EntidadesDialog_excluirButton_1ActionPerformed__Ljava_awt_event_ActionEvent_2 004136D8
 0002:0000BCB0       _$EntidadesDialog_excluir__ 00412CB0
 0002:0000C668       _$EntidadesDialog_fechar__ 00413668
 0002:0000C6A0       _$EntidadesDialog_inserirButton_1ActionPerformed__Ljava_awt_event_ActionEvent_2 004136A0
 0002:0000BD40       _$EntidadesDialog_inserir__ 00412D40
 0002:0000C710       _$EntidadesDialog_list_1MouseClicked__Ljava_awt_event_MouseEvent_2 00413710
 0002:0000C5A8       _$EntidadesDialog_setVisible__Z 004135A8
 0002:0000DE18       _$EventosDialog_00024SymAction__4init_5__LEventosDialog_2 00414E18
 0002:0000DD30       _$EventosDialog_00024SymAction_actionPerformed__Ljava_awt_event_ActionEvent_2 00414D30
 0002:0000DED4       _$EventosDialog_00024SymItem__4init_5__LEventosDialog_2 00414ED4
 0002:0000DE40       _$EventosDialog_00024SymItem_itemStateChanged__Ljava_awt_event_ItemEvent_2 00414E40
 0002:0000DF44       _$EventosDialog_00024SymMouse__4init_5__LEventosDialog_2 00414F44
 0002:0000DEFC       _$EventosDialog_00024SymMouse_mouseClicked__Ljava_awt_event_MouseEvent_2 00414EFC
 0002:0000DD08       _$EventosDialog_00024SymWindow__4init_5__LEventosDialog_2 00414D08
 0002:0000DC80       _$EventosDialog_00024SymWindow_windowActivated__Ljava_awt_event_WindowEvent_2 00414C80
 0002:0000DCC4       _$EventosDialog_00024SymWindow_windowClosing__Ljava_awt_event_WindowEvent_2 00414CC4
 0002:0000DBC0       _$EventosDialog_Ajudabutton_1ActionPerformed__Ljava_awt_event_ActionEvent_2 00414BC0
 0002:0000DABC       _$EventosDialog_Editarbutton_1ActionPerformed__Ljava_awt_event_ActionEvent_2 00414ABC
 0002:0000D930       _$EventosDialog_EventoDialog_1WindowActivated__Ljava_awt_event_WindowEvent_2 00414930
 0002:0000D8F8       _$EventosDialog_EventoDialog_1WindowClosing__Ljava_awt_event_WindowEvent_2 004148F8
 0002:0000DAD8       _$EventosDialog_Excluirbutton_1ActionPerformed__Ljava_awt_event_ActionEvent_2 00414AD8
 0002:0000DAA0       _$EventosDialog_Inserirbutton_1ActionPerformed__Ljava_awt_event_ActionEvent_2 00414AA0
 0002:0000D914       _$EventosDialog_OKbutton_1ActionPerformed__Ljava_awt_event_ActionEvent_2 00414914
 0002:0000CE90       _$EventosDialog__4init_5__Ljava_awt_Frame_2LYourdon_Projeto_2 00413E90
 0002:0000D0BC       _$EventosDialog__4init_5__Ljava_awt_Frame_2Z 004140BC
 0002:0000D77C       _$EventosDialog_addNotify__ 0041477C
 0002:0000CD48       _$EventosDialog_atualizar__ 00413D48
 0002:0000DA84       _$EventosDialog_choiceEntidades_1ItemStateChanged__Ljava_awt_event_ItemEvent_2 00414A84
 0002:0000CA30       _$EventosDialog_editar__   00413A30
 0002:0000CB10       _$EventosDialog_excluir__  00413B10
 0002:0000CD2C       _$EventosDialog_fechar__   00413D2C
 0002:0000CBEC       _$EventosDialog_inserir__  00413BEC
 0002:0000DAF4       _$EventosDialog_multiList1_1mouseClicked__Ljava_awt_event_MouseEvent_2 00414AF4
 0002:0000D9BC       _$EventosDialog_radioButtonEntidade_1ItemStateChanged__Ljava_awt_event_ItemEvent_2 004149BC
 0002:0000DA28       _$EventosDialog_radioButtonTemporal_1ItemStateChanged__Ljava_awt_event_ItemEvent_2 00414A28
 0002:0000DB24       _$EventosDialog_setVisible__Z 00414B24
 0002:00007354       _$PowerCase_00024SymAction__4init_5__LPowerCase_2 0040E354
 0002:00006F48       _$PowerCase_00024SymAction_actionPerformed__Ljava_awt_event_ActionEvent_2 0040DF48
 0002:00006F20       _$PowerCase_00024SymWindow__4init_5__LPowerCase_2 0040DF20
 0002:00006E98       _$PowerCase_00024SymWindow_windowActivated__Ljava_awt_event_WindowEvent_2 0040DE98
 0002:00006EDC       _$PowerCase_00024SymWindow_windowClosing__Ljava_awt_event_WindowEvent_2 0040DEDC
 0002:00006CFC       _$PowerCase_Contexto_1ActionPerformed__Ljava_awt_event_ActionEvent_2 0040DCFC
 0002:00006BDC       _$PowerCase_Entidades_1ActionPerformed__Ljava_awt_event_ActionEvent_2 0040DBDC
 0002:00006C90       _$PowerCase_Eventos_1ActionPerformed__Ljava_awt_event_ActionEvent_2 0040DC90
 0002:00006B04       _$PowerCase_Fechar_1ActionPerformed__Ljava_awt_event_ActionEvent_2 0040DB04
 0002:0000693C       _$PowerCase_Frame1_1WindowClosing__Ljava_awt_event_WindowEvent_2 0040D93C
 0003:0001ADB0       _$PowerCase_HELP           0043BDB0
 0002:00006C20       _$PowerCase_PowerFrame_1WindowActivated__Ljava_awt_event_WindowEvent_2 0040DC20
 0002:00006B20       _$PowerCase_Propiedades_1ActionPerformed__Ljava_awt_event_ActionEvent_2 0040DB20
 0002:00004E30       _$PowerCase__4init_5__     0040BE30
 0002:0000672C       _$PowerCase__4init_5__Ljava_lang_String_2 0040D72C
 0002:00004594       _$PowerCase_abrir__        0040B594
 0002:000067C0       _$PowerCase_addNotify__    0040D7C0
 0002:00006DF0       _$PowerCase_conteudoButton_1ActionPerformed__Ljava_awt_event_ActionEvent_2 0040DDF0
 0002:00006A28       _$PowerCase_dfd_1ActionPerformed__Ljava_awt_event_ActionEvent_2 0040DA28
 0002:0000448C       _$PowerCase_editarProjeto__ 0040B48C
 0002:000044D4       _$PowerCase_fecharArquivo__ 0040B4D4
 0002:00004BE4       _$PowerCase_fechar__       0040BBE4
 0002:00006A74       _$PowerCase_imageButton1_1actionPerformed__Ljava_awt_event_ActionEvent_2 0040DA74
 0002:00006B3C       _$PowerCase_imageButtonAbrir_1actionPerformed__Ljava_awt_event_ActionEvent_2 0040DB3C
 0002:00006DC8       _$PowerCase_imageButtonAjuda_1actionPerformed__Ljava_awt_event_ActionEvent_2 0040DDC8
 0002:00006D44       _$PowerCase_imageButtonContexto_1actionPerformed__Ljava_awt_event_ActionEvent_2 0040DD44
 0002:00006D6C       _$PowerCase_imageButtonDfd_1actionPerformed__Ljava_awt_event_ActionEvent_2 0040DD6C
 0002:00006B8C       _$PowerCase_imageButtonEditar_1actionPerformed__Ljava_awt_event_ActionEvent_2 0040DB8C
 0002:00006BB4       _$PowerCase_imageButtonEntidades_1actionPerformed__Ljava_awt_event_ActionEvent_2 0040DBB4
 0002:00006CD4       _$PowerCase_imageButtonEventos_1actionPerformed__Ljava_awt_event_ActionEvent_2 0040DCD4
 0002:00006B64       _$PowerCase_imageButtonSalvar_1actionPerformed__Ljava_awt_event_ActionEvent_2 0040DB64
 0002:00006D94       _$PowerCase_imageButtonVerificar_1actionPerformed__Ljava_awt_event_ActionEvent_2 0040DD94
 0002:00006798       _$PowerCase_main___3Ljava_lang_String_2 0040D798
 0002:0000698C       _$PowerCase_miAbout_1Action__Ljava_awt_event_ActionEvent_2 0040D98C
 0002:000069D0       _$PowerCase_miExit_1Action__Ljava_awt_event_ActionEvent_2 0040D9D0
 0002:00006AD4       _$PowerCase_miNew_1ActionPerformed__Ljava_awt_event_ActionEvent_2 0040DAD4
 0002:00006A0C       _$PowerCase_miOpen_1Action__Ljava_awt_event_ActionEvent_2 0040DA0C
 0002:00006AB8       _$PowerCase_miSaveAs_1ActionPerformed__Ljava_awt_event_ActionEvent_2 0040DAB8
 0002:00006A9C       _$PowerCase_miSave_1ActionPerformed__Ljava_awt_event_ActionEvent_2 0040DA9C
 0002:00004D50       _$PowerCase_novo__         0040BD50
 0002:00004918       _$PowerCase_salvarComo__   0040B918
 0002:00004AC4       _$PowerCase_salvar__       0040BAC4
 0002:000047FC       _$PowerCase_setEstadoMenu__Z 0040B7FC
 0002:0000675C       _$PowerCase_setVisible__Z  0040D75C
 0002:00006DBC       _$PowerCase_verificarMenu_1ActionPerformed__Ljava_awt_event_ActionEvent_2 0040DDBC
 0002:00007FC4       _$QuitDialog_00024SymAction__4init_5__LQuitDialog_2 0040EFC4
 0002:00007F54       _$QuitDialog_00024SymAction_actionPerformed__Ljava_awt_event_ActionEvent_2 0040EF54
 0002:00007F2C       _$QuitDialog_00024SymWindow__4init_5__LQuitDialog_2 0040EF2C
 0002:00007EE8       _$QuitDialog_00024SymWindow_windowClosing__Ljava_awt_event_WindowEvent_2 0040EEE8
 0002:00007E40       _$QuitDialog_QuitDialog_1WindowClosing__Ljava_awt_event_WindowEvent_2 0040EE40
 0002:00007D6C       _$QuitDialog__4init_5__Ljava_awt_Frame_2Ljava_lang_String_2Z 0040ED6C
 0002:000079E8       _$QuitDialog__4init_5__Ljava_awt_Frame_2Z 0040E9E8
 0002:00007BF0       _$QuitDialog_addNotify__   0040EBF0
 0002:00007ECC       _$QuitDialog_noButton_1Clicked__Ljava_awt_event_ActionEvent_2 0040EECC
 0002:00007DA4       _$QuitDialog_setVisible__Z 0040EDA4
 0002:00007E5C       _$QuitDialog_yesButton_1Clicked__Ljava_awt_event_ActionEvent_2 0040EE5C
 0002:00001BD0       _$SelecionarDepositoDialog_00024SymAction__4init_5__LSelecionarDepositoDialog_2 00408BD0
 0002:00001AC0       _$SelecionarDepositoDialog_00024SymAction_actionPerformed__Ljava_awt_event_ActionEvent_2 00408AC0
 0002:00001C40       _$SelecionarDepositoDialog_00024SymMouse__4init_5__LSelecionarDepositoDialog_2 00408C40
 0002:00001BF8       _$SelecionarDepositoDialog_00024SymMouse_mouseClicked__Ljava_awt_event_MouseEvent_2 00408BF8
 0002:00001A98       _$SelecionarDepositoDialog_00024SymWindow__4init_5__LSelecionarDepositoDialog_2 00408A98
 0002:00001A54       _$SelecionarDepositoDialog_00024SymWindow_windowClosing__Ljava_awt_event_WindowEvent_2 00408A54
 0002:00001840       _$SelecionarDepositoDialog_Dialog1_1WindowClosing__Ljava_awt_event_WindowEvent_2 00408840
 0002:00001078       _$SelecionarDepositoDialog__4init_5__Ljava_awt_Frame_2LYourdon_Projeto_2 00408078
 0002:0000176C       _$SelecionarDepositoDialog__4init_5__Ljava_awt_Frame_2Ljava_lang_String_2Z 0040876C
 0002:000010CC       _$SelecionarDepositoDialog__4init_5__Ljava_awt_Frame_2Z 004080CC
 0002:000015F0       _$SelecionarDepositoDialog_addNotify__ 004085F0
 0002:00001994       _$SelecionarDepositoDialog_ajudaButton_1ActionPerformed__Ljava_awt_event_ActionEvent_2 00408994
 0002:00000FF4       _$SelecionarDepositoDialog_atualizar__ 00407FF4
 0002:000018F4       _$SelecionarDepositoDialog_cancelarButton_1ActionPerformed__Ljava_awt_event_ActionEvent_2 004088F4
 0002:0000192C       _$SelecionarDepositoDialog_editarButton_1ActionPerformed__Ljava_awt_event_ActionEvent_2 0040892C
 0002:00000F64       _$SelecionarDepositoDialog_editar__ 00407F64
 0002:00001948       _$SelecionarDepositoDialog_excluirButton_1ActionPerformed__Ljava_awt_event_ActionEvent_2 00408948
 0002:00000E58       _$SelecionarDepositoDialog_excluir__ 00407E58
 0002:000018D8       _$SelecionarDepositoDialog_fechar__ 004088D8
 0002:00001910       _$SelecionarDepositoDialog_inserirButton_1ActionPerformed__Ljava_awt_event_ActionEvent_2 00408910
 0002:00000EE8       _$SelecionarDepositoDialog_inserir__ 00407EE8
 0002:00001964       _$SelecionarDepositoDialog_list_1MouseClicked__Ljava_awt_event_MouseEvent_2 00408964
 0002:000018BC       _$SelecionarDepositoDialog_selecionarButton_1ActionPerformed__Ljava_awt_event_ActionEvent_2 004088BC
 0002:00001864       _$SelecionarDepositoDialog_selecionar__ 00408864
 0002:000017A4       _$SelecionarDepositoDialog_setVisible__Z 004087A4
 0002:00002E28       _$SelecionarEntidadeDialog_00024SymAction__4init_5__LSelecionarEntidadeDialog_2 00409E28
 0002:00002D18       _$SelecionarEntidadeDialog_00024SymAction_actionPerformed__Ljava_awt_event_ActionEvent_2 00409D18
 0002:00002E98       _$SelecionarEntidadeDialog_00024SymMouse__4init_5__LSelecionarEntidadeDialog_2 00409E98
 0002:00002E50       _$SelecionarEntidadeDialog_00024SymMouse_mouseClicked__Ljava_awt_event_MouseEvent_2 00409E50
 0002:00002CF0       _$SelecionarEntidadeDialog_00024SymWindow__4init_5__LSelecionarEntidadeDialog_2 00409CF0
 0002:00002CAC       _$SelecionarEntidadeDialog_00024SymWindow_windowClosing__Ljava_awt_event_WindowEvent_2 00409CAC
 0002:00002A98       _$SelecionarEntidadeDialog_Dialog1_1WindowClosing__Ljava_awt_event_WindowEvent_2 00409A98
 0002:000022D0       _$SelecionarEntidadeDialog__4init_5__Ljava_awt_Frame_2LYourdon_Projeto_2 004092D0
 0002:000029C4       _$SelecionarEntidadeDialog__4init_5__Ljava_awt_Frame_2Ljava_lang_String_2Z 004099C4
 0002:00002324       _$SelecionarEntidadeDialog__4init_5__Ljava_awt_Frame_2Z 00409324
 0002:00002848       _$SelecionarEntidadeDialog_addNotify__ 00409848
 0002:00002BEC       _$SelecionarEntidadeDialog_ajudaButton_1ActionPerformed__Ljava_awt_event_ActionEvent_2 00409BEC
 0002:0000224C       _$SelecionarEntidadeDialog_atualizar__ 0040924C
 0002:00002B4C       _$SelecionarEntidadeDialog_cancelarButton_1ActionPerformed__Ljava_awt_event_ActionEvent_2 00409B4C
 0002:00002B84       _$SelecionarEntidadeDialog_editarButton_1ActionPerformed__Ljava_awt_event_ActionEvent_2 00409B84
 0002:000021BC       _$SelecionarEntidadeDialog_editar__ 004091BC
 0002:00002BA0       _$SelecionarEntidadeDialog_excluirButton_1ActionPerformed__Ljava_awt_event_ActionEvent_2 00409BA0
 0002:000020B0       _$SelecionarEntidadeDialog_excluir__ 004090B0
 0002:00002B30       _$SelecionarEntidadeDialog_fechar__ 00409B30
 0002:00002B68       _$SelecionarEntidadeDialog_inserirButton_1ActionPerformed__Ljava_awt_event_ActionEvent_2 00409B68
 0002:00002140       _$SelecionarEntidadeDialog_inserir__ 00409140
 0002:00002BBC       _$SelecionarEntidadeDialog_list_1MouseClicked__Ljava_awt_event_MouseEvent_2 00409BBC
 0002:00002ABC       _$SelecionarEntidadeDialog_selecionarButton_1ActionPerformed__Ljava_awt_event_ActionEvent_2 00409ABC
 0002:00002AD8       _$SelecionarEntidadeDialog_selecionar__ 00409AD8
 0002:000029FC       _$SelecionarEntidadeDialog_setVisible__Z 004099FC
 0002:00002088       _$SplashWindow_00024SymMouse__4init_5__LSplashWindow_2 00409088
 0002:00002040       _$SplashWindow_00024SymMouse_mouseClicked__Ljava_awt_event_MouseEvent_2 00409040
 0002:00001C68       _$SplashWindow__4init_5__Ljava_awt_Frame_2 00408C68
 0002:00001D94       _$SplashWindow_addNotify__ 00408D94
 0002:00001FF0       _$SplashWindow_imageViewer1_1mouseClicked__Ljava_awt_event_MouseEvent_2 00408FF0
 0002:00001F10       _$SplashWindow_setVisible__Z 00408F10
 0002:00000018       _$Yourdon_Deposito__4init_5__Ljava_lang_String_2 00407018
 0002:0000A08C       _$Yourdon_Diagrama__4init_5__LYourdon_Processo_2 0041108C
 0002:00009B64       _$Yourdon_Diagrama_adicionarSimboloDeposito__LYourdon_Deposito_2Ljava_awt_Point_2 00410B64
 0002:00009B8C       _$Yourdon_Diagrama_adicionarSimboloDeposito__LYourdon_Deposito_2Ljava_awt_Point_2Z 00410B8C
 0002:0000A064       _$Yourdon_Diagrama_adicionarSimboloEntidade__LYourdon_Entidade_2Ljava_awt_Point_2 00411064
 0002:0000A020       _$Yourdon_Diagrama_adicionarSimboloEntidade__LYourdon_Entidade_2Ljava_awt_Point_2Z 00411020
 0002:00009E5C       _$Yourdon_Diagrama_adicionarSimboloFluxo__LYourdon_Fluxo_2LYourdon_SimboloMovel_2LYourdon_SimboloMovel_2 00410E5C
 0002:00009E88       _$Yourdon_Diagrama_adicionarSimboloFluxo__LYourdon_Fluxo_2LYourdon_SimboloMovel_2LYourdon_SimboloMovel_2Z 00410E88
 0002:00009884       _$Yourdon_Diagrama_adicionarSimboloHerdadoDetalhe__LYourdon_Diagrama_2LYourdon_Simbolo_2 00410884
 0002:00009FB4       _$Yourdon_Diagrama_adicionarSimboloProcesso__LYourdon_Processo_2Ljava_awt_Point_2 00410FB4
 0002:00009FDC       _$Yourdon_Diagrama_adicionarSimboloProcesso__LYourdon_Processo_2Ljava_awt_Point_2Z 00410FDC
 0002:00009944       _$Yourdon_Diagrama_decomporProcessoSelecionado__ 00410944
 0002:0000A1A8       _$Yourdon_Diagrama_desenhar__Ljava_awt_Graphics_2 004111A8
 0002:00009D98       _$Yourdon_Diagrama_excluirFluxoReferencia__LYourdon_SimboloMovel_2 00410D98
 0002:00009BD0       _$Yourdon_Diagrama_excluirReferenciaElemento__LYourdon_ElementoEssencial_2 00410BD0
 0002:000097F8       _$Yourdon_Diagrama_excluirSimboloHerdadoElemento__LYourdon_ElementoEssencial_2 004107F8
 0002:00009F64       _$Yourdon_Diagrama_excluirSimboloSelecionado__ 00410F64
 0002:00009C90       _$Yourdon_Diagrama_excluirSimbolo__LYourdon_Simbolo_2 00410C90
 0002:0000A194       _$Yourdon_Diagrama_getSimboloSelecionado__ 00411194
 0002:0000A0C4       _$Yourdon_Diagrama_moverSimboloSelecionado__II 004110C4
 0002:00009B10       _$Yourdon_Diagrama_selecionarSimbolo__LYourdon_Simbolo_2 00410B10
 0002:0000A0EC       _$Yourdon_Diagrama_selecionarSimbolo__Ljava_awt_Point_2 004110EC
 0002:0000A238       _$Yourdon_ElementoEssencial__4init_5__Ljava_lang_String_2 00411238
 0002:0000A224       _$Yourdon_ElementoEssencial_getDescricao__ 00411224
 0002:0000A20C       _$Yourdon_ElementoEssencial_setDescricao__Ljava_lang_String_2 0041120C
 0002:0000A41C       _$Yourdon_Entidade__4init_5__Ljava_lang_String_2 0041141C
 0002:00012FD0       _$Yourdon_Evento__4init_5__LYourdon_Entidade_2Ljava_lang_String_2Ljava_lang_String_2Ljava_lang_String_2 00419FD0
 0002:00013054       _$Yourdon_Evento_getEntidade__ 0041A054
 0002:00013024       _$Yourdon_Evento_getEstimulo__ 0041A024
 0002:00013084       _$Yourdon_Evento_getResposta__ 0041A084
 0002:00013038       _$Yourdon_Evento_setEntidade__LYourdon_Entidade_2 0041A038
 0002:00013008       _$Yourdon_Evento_setEstimulo__Ljava_lang_String_2 0041A008
 0002:00013068       _$Yourdon_Evento_setResposta__Ljava_lang_String_2 0041A068
 0003:00017970       _$Yourdon_Fluxo_BIDIRECIONAL 00438970
 0003:00017974       _$Yourdon_Fluxo_INVERTIDO  00438974
 0003:00017978       _$Yourdon_Fluxo_NORMAL     00438978
 0002:00011744       _$Yourdon_Fluxo__4init_5__Ljava_lang_String_2I 00418744
 0002:0001178C       _$Yourdon_Fluxo_getTipoFluxo__ 0041878C
 0002:00011770       _$Yourdon_Fluxo_setTipoFluxo__I 00418770
 0002:00000178       _$Yourdon_ListaDepositos__4init_5__ 00407178
 0002:00000194       _$Yourdon_ListaDepositos_adicionar__Ljava_lang_String_2 00407194
 0002:000000D4       _$Yourdon_ListaDepositos_getDeposito__I 004070D4
 0002:00000038       _$Yourdon_ListaDepositos_getPrimeiro__ 00407038
 0002:00000058       _$Yourdon_ListaDepositos_getProximo__ 00407058
 0002:00000154       _$Yourdon_ListaDepositos_remover__I 00407154
 0002:0000A988       _$Yourdon_ListaElementos__4init_5__ 00411988
 0002:0000A9B8       _$Yourdon_ListaElementos_getQuantidade__ 004119B8
 0002:0000A92C       _$Yourdon_ListaEntidades__4init_5__ 0041192C
 0002:0000A948       _$Yourdon_ListaEntidades_adicionar__Ljava_lang_String_2 00411948
 0002:0000A810       _$Yourdon_ListaEntidades_getEntidade__I 00411810
 0002:0000A90C       _$Yourdon_ListaEntidades_getPrimeiro__ 0041190C
 0002:0000A890       _$Yourdon_ListaEntidades_getProximo__ 00411890
 0002:0000A7EC       _$Yourdon_ListaEntidades_remover__I 004117EC
 0002:0001227C       _$Yourdon_ListaEventos__4init_5__ 0041927C
 0002:00012234       _$Yourdon_ListaEventos_adicionar__LYourdon_Entidade_2Ljava_lang_String_2Ljava_lang_String_2Ljava_lang_String_2 00419234
 0002:000120D4       _$Yourdon_ListaEventos_getEvento__LYourdon_Entidade_2I 004190D4
 0002:00012148       _$Yourdon_ListaEventos_getPrimeiro__LYourdon_Entidade_2 00419148
 0002:00012174       _$Yourdon_ListaEventos_getProximo__LYourdon_Entidade_2 00419174
 0002:00012124       _$Yourdon_ListaEventos_remover__LYourdon_Evento_2 00419124
 0002:000116C0       _$Yourdon_ListaFluxos__4init_5__ 004186C0
 0002:000116DC       _$Yourdon_ListaFluxos_adicionar__Ljava_lang_String_2 004186DC
 0002:00011700       _$Yourdon_ListaFluxos_adicionar__Ljava_lang_String_2I 00418700
 0002:0001169C       _$Yourdon_ListaFluxos_remover__LYourdon_Fluxo_2 0041869C
 0002:0000AA5C       _$Yourdon_ListaProcessos__4init_5__ 00411A5C
 0002:0000AA18       _$Yourdon_ListaProcessos_adicionar__LYourdon_Processo_2Ljava_lang_String_2 00411A18
 0002:0000A9D4       _$Yourdon_ListaProcessos_remover__LYourdon_Processo_2 004119D4
 0002:00013340       _$Yourdon_Processo__4init_5__LYourdon_Processo_2Ljava_lang_String_2 0041A340
 0002:0001331C       _$Yourdon_Processo__4init_5__Ljava_lang_String_2 0041A31C
 0002:00013208       _$Yourdon_Processo_getNomeCompleto__ 0041A208
 0002:000132A0       _$Yourdon_Processo_getNumeroCompleto__ 0041A2A0
 0002:00013400       _$Yourdon_Processo_getNumero__ 0041A400
 0002:00013198       _$Yourdon_Processo_getProximoNumero__ 0041A198
 0002:000130D0       _$Yourdon_Processo_inserirNumeroSubProcesso__I 0041A0D0
 0002:00013098       _$Yourdon_Processo_removerNumeroSubProcesso__I 0041A098
 0002:000133BC       _$Yourdon_Processo_setNumero__I 0041A3BC
 0002:00013104       _$Yourdon_Processo_trocarNumeroSubProcesso__II 0041A104
 0002:000096E0       _$Yourdon_Projeto__4init_5__ 004106E0
 0002:0000964C       _$Yourdon_Projeto_getCriacao__ 0041064C
 0002:0000967C       _$Yourdon_Projeto_getDescricao__ 0041067C
 0002:000096BC       _$Yourdon_Projeto_getNome__ 004106BC
 0002:00009638       _$Yourdon_Projeto_getObjetivo__ 00410638
 0002:00009624       _$Yourdon_Projeto_getResponsavel__ 00410624
 0002:000095D8       _$Yourdon_Projeto_getRevisao__ 004105D8
 0002:00009660       _$Yourdon_Projeto_setDescricao__Ljava_lang_String_2 00410660
 0002:00009690       _$Yourdon_Projeto_setNome__Ljava_lang_String_2 00410690
 0002:000095EC       _$Yourdon_Projeto_setObjetivo__Ljava_lang_String_2 004105EC
 0002:00009608       _$Yourdon_Projeto_setResponsavel__Ljava_lang_String_2 00410608
 0002:000095BC       _$Yourdon_Projeto_setRevisao__Ljava_util_Date_2 004105BC
 0002:000001D4       _$Yourdon_SimboloDeposito__4init_5__LYourdon_Deposito_2Ljava_awt_Point_2Z 004071D4
 0002:000001FC       _$Yourdon_SimboloDeposito_desenhar__Ljava_awt_Graphics_2 004071FC
 0002:0000A260       _$Yourdon_SimboloEntidade__4init_5__LYourdon_Entidade_2Ljava_awt_Point_2Z 00411260
 0002:0000A288       _$Yourdon_SimboloEntidade_desenhar__Ljava_awt_Graphics_2 00411288
 0003:0001ADE0       _$Yourdon_SimboloFluxo_NORMAL 0043BDE0
 0002:000120A8       _$Yourdon_SimboloFluxo__4clinit_5__ 004190A8
 0002:000117A0       _$Yourdon_SimboloFluxo__4init_5__LYourdon_Fluxo_2LYourdon_SimboloMovel_2LYourdon_SimboloMovel_2Z 004187A0
 0002:00011AD0       _$Yourdon_SimboloFluxo_desenharSeta__Ljava_awt_Graphics_2Ljava_awt_Point_2Ljava_awt_Point_2 00418AD0
 0002:00011854       _$Yourdon_SimboloFluxo_desenhar__Ljava_awt_Graphics_2 00418854
 0002:0001205C       _$Yourdon_SimboloFluxo_selecionar__Z 0041905C
 0002:0000A4EC       _$Yourdon_SimboloMovel__4init_5__ILYourdon_ElementoEssencial_2Ljava_awt_Point_2Z 004114EC
 0002:0000A43C       _$Yourdon_SimboloMovel_getAresta__Ljava_awt_Point_2 0041143C
 0002:00013588       _$Yourdon_SimboloProcesso__4init_5__LYourdon_Processo_2Ljava_awt_Point_2Z 0041A588
 0002:00013414       _$Yourdon_SimboloProcesso_contemPonto__Ljava_awt_Point_2 0041A414
 0002:000135B0       _$Yourdon_SimboloProcesso_desenhar__Ljava_awt_Graphics_2 0041A5B0
 0002:000134A8       _$Yourdon_SimboloProcesso_getAresta__Ljava_awt_Point_2 0041A4A8
 0003:0001ADB8       _$Yourdon_Simbolo_BORDA    0043BDB8
 0003:0001ADBC       _$Yourdon_Simbolo_BORDAHERDADO 0043BDBC
 0003:0000DCA8       _$Yourdon_Simbolo_DEPOSITO 0042ECA8
 0003:0000DCB0       _$Yourdon_Simbolo_ENTIDADE 0042ECB0
 0003:0000DCA4       _$Yourdon_Simbolo_FLUXO    0042ECA4
 0003:0000DCA0       _$Yourdon_Simbolo_MAXTAMTEXTO 0042ECA0
 0003:0001ADCC       _$Yourdon_Simbolo_NORMAL   0043BDCC
 0003:0001ADC8       _$Yourdon_Simbolo_NORMALHERDADO 0043BDC8
 0003:0000DCAC       _$Yourdon_Simbolo_PROCESSO 0042ECAC
 0003:0001ADD0       _$Yourdon_Simbolo_SELECIONADO 0043BDD0
 0003:0001ADC4       _$Yourdon_Simbolo_SELECIONADOHERDADO 0043BDC4
 0003:0001ADC0       _$Yourdon_Simbolo_TEXTO    0043BDC0
 0002:0000A730       _$Yourdon_Simbolo__4clinit_5__ 00411730
 0002:0000A544       _$Yourdon_Simbolo__4init_5__ILYourdon_ElementoEssencial_2Z 00411544
 0002:0000A690       _$Yourdon_Simbolo_contemPonto__Ljava_awt_Point_2 00411690
 0002:0000A6DC       _$Yourdon_Simbolo_getCentro__ 004116DC
 0002:0000A668       _$Yourdon_Simbolo_getHerdado__ 00411668
 0002:0000A67C       _$Yourdon_Simbolo_getTipoSimbolo__ 0041167C
 0002:0000A6B4       _$Yourdon_Simbolo_mover__II 004116B4
 0002:0000A5D0       _$Yourdon_Simbolo_selecionar__Z 004115D0
 0002:00019264  Imp  _$java_awt_BorderLayout__4init_5__II (SNJAWT11.DLL.$java_awt_BorderLayout__4init_5__II)
 0002:00019816  Imp  _$java_awt_Button__4init_5__ (SNJAWT11.DLL.$java_awt_Button__4init_5__)
 0002:0001907E  Imp  _$java_awt_Canvas__4init_5__ (SNJAWT11.DLL.$java_awt_Canvas__4init_5__)
 0002:00019144  Imp  _$java_awt_Canvas_addNotify__ (SNJAWT11.DLL.$java_awt_Canvas_addNotify__)
 0002:000190F0  Imp  _$java_awt_Canvas_postsOldMouseEvents__ (SNJAWT11.DLL.$java_awt_Canvas_postsOldMouseEvents__)
 0002:00019054  Imp  _$java_awt_CheckboxGroup__4init_5__ (SNJAWT11.DLL.$java_awt_CheckboxGroup__4init_5__)
 0002:0001915C  Imp  _$java_awt_Checkbox__4init_5__Ljava_lang_String_2 (SNJAWT11.DLL.$java_awt_Checkbox__4init_5__Ljava_lang_String_2)
 0002:0001904E  Imp  _$java_awt_Checkbox__4init_5__Ljava_lang_String_2Ljava_awt_CheckboxGroup_2Z (SNJAWT11.DLL.$java_awt_Checkbox__4init_5__Ljava_lang_String_2Ljava_awt_CheckboxGroup_2Z)
 0002:00019150  Imp  _$java_awt_Choice__4init_5__ (SNJAWT11.DLL.$java_awt_Choice__4init_5__)
 0002:00019804  Imp  _$java_awt_Color__4init_5__I (SNJAWT11.DLL.$java_awt_Color__4init_5__I)
 0002:000191A4  Imp  _$java_awt_Color__4init_5__III (SNJAWT11.DLL.$java_awt_Color__4init_5__III)
 0002:00019186  Imp  _$java_awt_Color_black (SNJAWT11.DLL.$java_awt_Color_black)
 0002:0001917A  Imp  _$java_awt_Color_blue (SNJAWT11.DLL.$java_awt_Color_blue)
 0002:00019180  Imp  _$java_awt_Color_gray (SNJAWT11.DLL.$java_awt_Color_gray)
 0002:00019174  Imp  _$java_awt_Color_lightGray (SNJAWT11.DLL.$java_awt_Color_lightGray)
 0002:0001916E  Imp  _$java_awt_Color_white (SNJAWT11.DLL.$java_awt_Color_white)
 0002:00019168  Imp  _$java_awt_Color_yellow (SNJAWT11.DLL.$java_awt_Color_yellow)
 0002:00019624  Imp  _$java_awt_Component_action__Ljava_awt_Event_2Ljava_lang_Object_2 (SNJAWT11.DLL.$java_awt_Component_action__Ljava_awt_Event_2Ljava_lang_Object_2)
 0002:000195AC  Imp  _$java_awt_Component_addComponentListener__Ljava_awt_event_ComponentListener_2 (SNJAWT11.DLL.$java_awt_Component_addComponentListener__Ljava_awt_event_ComponentListener_2)
 0002:000195A0  Imp  _$java_awt_Component_addFocusListener__Ljava_awt_event_FocusListener_2 (SNJAWT11.DLL.$java_awt_Component_addFocusListener__Ljava_awt_event_FocusListener_2)
 0002:00019594  Imp  _$java_awt_Component_addKeyListener__Ljava_awt_event_KeyListener_2 (SNJAWT11.DLL.$java_awt_Component_addKeyListener__Ljava_awt_event_KeyListener_2)
 0002:000195E8  Imp  _$java_awt_Component_addMouseListener__Ljava_awt_event_MouseListener_2 (SNJAWT11.DLL.$java_awt_Component_addMouseListener__Ljava_awt_event_MouseListener_2)
 0002:000195DC  Imp  _$java_awt_Component_addMouseMotionListener__Ljava_awt_event_MouseMotionListener_2 (SNJAWT11.DLL.$java_awt_Component_addMouseMotionListener__Ljava_awt_event_MouseMotionListener_2)
 0002:00019654  Imp  _$java_awt_Component_add__Ljava_awt_PopupMenu_2 (SNJAWT11.DLL.$java_awt_Component_add__Ljava_awt_PopupMenu_2)
 0002:00019474  Imp  _$java_awt_Component_bounds__ (SNJAWT11.DLL.$java_awt_Component_bounds__)
 0002:0001952E  Imp  _$java_awt_Component_checkImage__Ljava_awt_Image_2IILjava_awt_image_ImageObserver_2 (SNJAWT11.DLL.$java_awt_Component_checkImage__Ljava_awt_Image_2IILjava_awt_image_ImageObserver_2)
 0002:00019534  Imp  _$java_awt_Component_checkImage__Ljava_awt_Image_2Ljava_awt_image_ImageObserver_2 (SNJAWT11.DLL.$java_awt_Component_checkImage__Ljava_awt_Image_2Ljava_awt_image_ImageObserver_2)
 0002:00019588  Imp  _$java_awt_Component_contains__II (SNJAWT11.DLL.$java_awt_Component_contains__II)
 0002:0001957C  Imp  _$java_awt_Component_contains__Ljava_awt_Point_2 (SNJAWT11.DLL.$java_awt_Component_contains__Ljava_awt_Point_2)
 0002:00019546  Imp  _$java_awt_Component_createImage__II (SNJAWT11.DLL.$java_awt_Component_createImage__II)
 0002:0001954C  Imp  _$java_awt_Component_createImage__Ljava_awt_image_ImageProducer_2 (SNJAWT11.DLL.$java_awt_Component_createImage__Ljava_awt_image_ImageProducer_2)
 0002:00019108  Imp  _$java_awt_Component_deliverEvent__Ljava_awt_Event_2 (SNJAWT11.DLL.$java_awt_Component_deliverEvent__Ljava_awt_Event_2)
 0002:000195CA  Imp  _$java_awt_Component_disableEvents__J (SNJAWT11.DLL.$java_awt_Component_disableEvents__J)
 0002:000193EA  Imp  _$java_awt_Component_disable__ (SNJAWT11.DLL.$java_awt_Component_disable__)
 0002:00019102  Imp  _$java_awt_Component_dispatchEventImpl__Ljava_awt_AWTEvent_2 (SNJAWT11.DLL.$java_awt_Component_dispatchEventImpl__Ljava_awt_AWTEvent_2)
 0002:0001955E  Imp  _$java_awt_Component_dispatchEvent__Ljava_awt_AWTEvent_2 (SNJAWT11.DLL.$java_awt_Component_dispatchEvent__Ljava_awt_AWTEvent_2)
 0002:000190D8  Imp  _$java_awt_Component_doLayout__ (SNJAWT11.DLL.$java_awt_Component_doLayout__)
 0002:000195D0  Imp  _$java_awt_Component_enableEvents__J (SNJAWT11.DLL.$java_awt_Component_enableEvents__J)
 0002:000193F6  Imp  _$java_awt_Component_enable__ (SNJAWT11.DLL.$java_awt_Component_enable__)
 0002:000193F0  Imp  _$java_awt_Component_enable__Z (SNJAWT11.DLL.$java_awt_Component_enable__Z)
 0002:000190FC  Imp  _$java_awt_Component_eventEnabled__Ljava_awt_AWTEvent_2 (SNJAWT11.DLL.$java_awt_Component_eventEnabled__Ljava_awt_AWTEvent_2)
 0002:000190E4  Imp  _$java_awt_Component_getAlignmentX__ (SNJAWT11.DLL.$java_awt_Component_getAlignmentX__)
 0002:000190DE  Imp  _$java_awt_Component_getAlignmentY__ (SNJAWT11.DLL.$java_awt_Component_getAlignmentY__)
 0002:00019426  Imp  _$java_awt_Component_getBackground__ (SNJAWT11.DLL.$java_awt_Component_getBackground__)
 0002:0001947A  Imp  _$java_awt_Component_getBounds__ (SNJAWT11.DLL.$java_awt_Component_getBounds__)
 0002:00019468  Imp  _$java_awt_Component_getColorModel__ (SNJAWT11.DLL.$java_awt_Component_getColorModel__)
 0002:0001911A  Imp  _$java_awt_Component_getComponentAt__II (SNJAWT11.DLL.$java_awt_Component_getComponentAt__II)
 0002:0001910E  Imp  _$java_awt_Component_getComponentAt__Ljava_awt_Point_2 (SNJAWT11.DLL.$java_awt_Component_getComponentAt__Ljava_awt_Point_2)
 0002:00019528  Imp  _$java_awt_Component_getCursor__ (SNJAWT11.DLL.$java_awt_Component_getCursor__)
 0002:000194D4  Imp  _$java_awt_Component_getFontMetrics__Ljava_awt_Font_2 (SNJAWT11.DLL.$java_awt_Component_getFontMetrics__Ljava_awt_Font_2)
 0002:00019396  Imp  _$java_awt_Component_getFont__ (SNJAWT11.DLL.$java_awt_Component_getFont__)
 0002:00019432  Imp  _$java_awt_Component_getForeground__ (SNJAWT11.DLL.$java_awt_Component_getForeground__)
 0002:000194DA  Imp  _$java_awt_Component_getGraphics__ (SNJAWT11.DLL.$java_awt_Component_getGraphics__)
 0002:000190A8  Imp  _$java_awt_Component_getLocale__ (SNJAWT11.DLL.$java_awt_Component_getLocale__)
 0002:0001945C  Imp  _$java_awt_Component_getLocationOnScreen__ (SNJAWT11.DLL.$java_awt_Component_getLocationOnScreen__)
 0002:00019462  Imp  _$java_awt_Component_getLocation__ (SNJAWT11.DLL.$java_awt_Component_getLocation__)
 0002:000190EA  Imp  _$java_awt_Component_getMaximumSize__ (SNJAWT11.DLL.$java_awt_Component_getMaximumSize__)
 0002:00019096  Imp  _$java_awt_Component_getMinimumSize__ (SNJAWT11.DLL.$java_awt_Component_getMinimumSize__)
 0002:000193D8  Imp  _$java_awt_Component_getName__ (SNJAWT11.DLL.$java_awt_Component_getName__)
 0002:0001968A  Imp  _$java_awt_Component_getNativeContainer__ (SNJAWT11.DLL.$java_awt_Component_getNativeContainer__)
 0002:000193CC  Imp  _$java_awt_Component_getParent__ (SNJAWT11.DLL.$java_awt_Component_getParent__)
 0002:000193C6  Imp  _$java_awt_Component_getPeer__ (SNJAWT11.DLL.$java_awt_Component_getPeer__)
 0002:000190A2  Imp  _$java_awt_Component_getPreferredSize__ (SNJAWT11.DLL.$java_awt_Component_getPreferredSize__)
 0002:0001943E  Imp  _$java_awt_Component_getSize__ (SNJAWT11.DLL.$java_awt_Component_getSize__)
 0002:000190BA  Imp  _$java_awt_Component_getToolkit__ (SNJAWT11.DLL.$java_awt_Component_getToolkit__)
 0002:000193C0  Imp  _$java_awt_Component_getTreeLock__ (SNJAWT11.DLL.$java_awt_Component_getTreeLock__)
 0002:00019678  Imp  _$java_awt_Component_gotFocus__Ljava_awt_Event_2Ljava_lang_Object_2 (SNJAWT11.DLL.$java_awt_Component_gotFocus__Ljava_awt_Event_2Ljava_lang_Object_2)
 0002:000195FA  Imp  _$java_awt_Component_handleEvent__Ljava_awt_Event_2 (SNJAWT11.DLL.$java_awt_Component_handleEvent__Ljava_awt_Event_2)
 0002:00019438  Imp  _$java_awt_Component_hide__ (SNJAWT11.DLL.$java_awt_Component_hide__)
 0002:0001939C  Imp  _$java_awt_Component_imageUpdate__Ljava_awt_Image_2IIIII (SNJAWT11.DLL.$java_awt_Component_imageUpdate__Ljava_awt_Image_2IIIII)
 0002:00019582  Imp  _$java_awt_Component_inside__II (SNJAWT11.DLL.$java_awt_Component_inside__II)
 0002:000190C6  Imp  _$java_awt_Component_invalidate__ (SNJAWT11.DLL.$java_awt_Component_invalidate__)
 0002:00019402  Imp  _$java_awt_Component_isEnabled__ (SNJAWT11.DLL.$java_awt_Component_isEnabled__)
 0002:0001966C  Imp  _$java_awt_Component_isFocusTraversable__ (SNJAWT11.DLL.$java_awt_Component_isFocusTraversable__)
 0002:000190B4  Imp  _$java_awt_Component_isShowing__ (SNJAWT11.DLL.$java_awt_Component_isShowing__)
 0002:000193B4  Imp  _$java_awt_Component_isValid__ (SNJAWT11.DLL.$java_awt_Component_isValid__)
 0002:000193AE  Imp  _$java_awt_Component_isVisible__ (SNJAWT11.DLL.$java_awt_Component_isVisible__)
 0002:00019630  Imp  _$java_awt_Component_keyDown__Ljava_awt_Event_2I (SNJAWT11.DLL.$java_awt_Component_keyDown__Ljava_awt_Event_2I)
 0002:0001962A  Imp  _$java_awt_Component_keyUp__Ljava_awt_Event_2I (SNJAWT11.DLL.$java_awt_Component_keyUp__Ljava_awt_Event_2I)
 0002:000190D2  Imp  _$java_awt_Component_layout__ (SNJAWT11.DLL.$java_awt_Component_layout__)
 0002:000196A8  Imp  _$java_awt_Component_list__ (SNJAWT11.DLL.$java_awt_Component_list__)
 0002:000196A2  Imp  _$java_awt_Component_list__Ljava_io_PrintStream_2 (SNJAWT11.DLL.$java_awt_Component_list__Ljava_io_PrintStream_2)
 0002:00019132  Imp  _$java_awt_Component_list__Ljava_io_PrintStream_2I (SNJAWT11.DLL.$java_awt_Component_list__Ljava_io_PrintStream_2I)
 0002:00019696  Imp  _$java_awt_Component_list__Ljava_io_PrintWriter_2 (SNJAWT11.DLL.$java_awt_Component_list__Ljava_io_PrintWriter_2)
 0002:0001912C  Imp  _$java_awt_Component_list__Ljava_io_PrintWriter_2I (SNJAWT11.DLL.$java_awt_Component_list__Ljava_io_PrintWriter_2I)
 0002:00019114  Imp  _$java_awt_Component_locate__II (SNJAWT11.DLL.$java_awt_Component_locate__II)
 0002:00019456  Imp  _$java_awt_Component_location__ (SNJAWT11.DLL.$java_awt_Component_location__)
 0002:00019672  Imp  _$java_awt_Component_lostFocus__Ljava_awt_Event_2Ljava_lang_Object_2 (SNJAWT11.DLL.$java_awt_Component_lostFocus__Ljava_awt_Event_2Ljava_lang_Object_2)
 0002:00019090  Imp  _$java_awt_Component_minimumSize__ (SNJAWT11.DLL.$java_awt_Component_minimumSize__)
 0002:000195F4  Imp  _$java_awt_Component_mouseDown__Ljava_awt_Event_2II (SNJAWT11.DLL.$java_awt_Component_mouseDown__Ljava_awt_Event_2II)
 0002:000195EE  Imp  _$java_awt_Component_mouseDrag__Ljava_awt_Event_2II (SNJAWT11.DLL.$java_awt_Component_mouseDrag__Ljava_awt_Event_2II)
 0002:0001963C  Imp  _$java_awt_Component_mouseEnter__Ljava_awt_Event_2II (SNJAWT11.DLL.$java_awt_Component_mouseEnter__Ljava_awt_Event_2II)
 0002:00019636  Imp  _$java_awt_Component_mouseExit__Ljava_awt_Event_2II (SNJAWT11.DLL.$java_awt_Component_mouseExit__Ljava_awt_Event_2II)
 0002:00019642  Imp  _$java_awt_Component_mouseMove__Ljava_awt_Event_2II (SNJAWT11.DLL.$java_awt_Component_mouseMove__Ljava_awt_Event_2II)
 0002:00019648  Imp  _$java_awt_Component_mouseUp__Ljava_awt_Event_2II (SNJAWT11.DLL.$java_awt_Component_mouseUp__Ljava_awt_Event_2II)
 0002:0001944A  Imp  _$java_awt_Component_move__II (SNJAWT11.DLL.$java_awt_Component_move__II)
 0002:0001965A  Imp  _$java_awt_Component_nextFocus__ (SNJAWT11.DLL.$java_awt_Component_nextFocus__)
 0002:00019516  Imp  _$java_awt_Component_paintAll__Ljava_awt_Graphics_2 (SNJAWT11.DLL.$java_awt_Component_paintAll__Ljava_awt_Graphics_2)
 0002:00019138  Imp  _$java_awt_Component_paramString__ (SNJAWT11.DLL.$java_awt_Component_paramString__)
 0002:0001908A  Imp  _$java_awt_Component_postEvent__Ljava_awt_Event_2 (SNJAWT11.DLL.$java_awt_Component_postEvent__Ljava_awt_Event_2)
 0002:0001909C  Imp  _$java_awt_Component_preferredSize__ (SNJAWT11.DLL.$java_awt_Component_preferredSize__)
 0002:0001953A  Imp  _$java_awt_Component_prepareImage__Ljava_awt_Image_2IILjava_awt_image_ImageObserver_2 (SNJAWT11.DLL.$java_awt_Component_prepareImage__Ljava_awt_Image_2IILjava_awt_image_ImageObserver_2)
 0002:00019540  Imp  _$java_awt_Component_prepareImage__Ljava_awt_Image_2Ljava_awt_image_ImageObserver_2 (SNJAWT11.DLL.$java_awt_Component_prepareImage__Ljava_awt_Image_2Ljava_awt_image_ImageObserver_2)
 0002:00019552  Imp  _$java_awt_Component_printAll__Ljava_awt_Graphics_2 (SNJAWT11.DLL.$java_awt_Component_printAll__Ljava_awt_Graphics_2)
 0002:000190C0  Imp  _$java_awt_Component_print__Ljava_awt_Graphics_2 (SNJAWT11.DLL.$java_awt_Component_print__Ljava_awt_Graphics_2)
 0002:000195BE  Imp  _$java_awt_Component_processComponentEvent__Ljava_awt_event_ComponentEvent_2 (SNJAWT11.DLL.$java_awt_Component_processComponentEvent__Ljava_awt_event_ComponentEvent_2)
 0002:000190F6  Imp  _$java_awt_Component_processEvent__Ljava_awt_AWTEvent_2 (SNJAWT11.DLL.$java_awt_Component_processEvent__Ljava_awt_AWTEvent_2)
 0002:00019618  Imp  _$java_awt_Component_processFocusEvent__Ljava_awt_event_FocusEvent_2 (SNJAWT11.DLL.$java_awt_Component_processFocusEvent__Ljava_awt_event_FocusEvent_2)
 0002:00019612  Imp  _$java_awt_Component_processKeyEvent__Ljava_awt_event_KeyEvent_2 (SNJAWT11.DLL.$java_awt_Component_processKeyEvent__Ljava_awt_event_KeyEvent_2)
 0002:0001960C  Imp  _$java_awt_Component_processMouseEvent__Ljava_awt_event_MouseEvent_2 (SNJAWT11.DLL.$java_awt_Component_processMouseEvent__Ljava_awt_event_MouseEvent_2)
 0002:00019606  Imp  _$java_awt_Component_processMouseMotionEvent__Ljava_awt_event_MouseEvent_2 (SNJAWT11.DLL.$java_awt_Component_processMouseMotionEvent__Ljava_awt_event_MouseEvent_2)
 0002:00019120  Imp  _$java_awt_Component_readObject__Ljava_io_ObjectInputStream_2 (SNJAWT11.DLL.$java_awt_Component_readObject__Ljava_io_ObjectInputStream_2)
 0002:000195A6  Imp  _$java_awt_Component_removeComponentListener__Ljava_awt_event_ComponentListener_2 (SNJAWT11.DLL.$java_awt_Component_removeComponentListener__Ljava_awt_event_ComponentListener_2)
 0002:0001959A  Imp  _$java_awt_Component_removeFocusListener__Ljava_awt_event_FocusListener_2 (SNJAWT11.DLL.$java_awt_Component_removeFocusListener__Ljava_awt_event_FocusListener_2)
 0002:0001958E  Imp  _$java_awt_Component_removeKeyListener__Ljava_awt_event_KeyListener_2 (SNJAWT11.DLL.$java_awt_Component_removeKeyListener__Ljava_awt_event_KeyListener_2)
 0002:000195E2  Imp  _$java_awt_Component_removeMouseListener__Ljava_awt_event_MouseListener_2 (SNJAWT11.DLL.$java_awt_Component_removeMouseListener__Ljava_awt_event_MouseListener_2)
 0002:000195D6  Imp  _$java_awt_Component_removeMouseMotionListener__Ljava_awt_event_MouseMotionListener_2 (SNJAWT11.DLL.$java_awt_Component_removeMouseMotionListener__Ljava_awt_event_MouseMotionListener_2)
 0002:0001913E  Imp  _$java_awt_Component_removeNotify__ (SNJAWT11.DLL.$java_awt_Component_removeNotify__)
 0002:000193A8  Imp  _$java_awt_Component_remove__Ljava_awt_MenuComponent_2 (SNJAWT11.DLL.$java_awt_Component_remove__Ljava_awt_MenuComponent_2)
 0002:00019510  Imp  _$java_awt_Component_repaint__ (SNJAWT11.DLL.$java_awt_Component_repaint__)
 0002:00019504  Imp  _$java_awt_Component_repaint__IIII (SNJAWT11.DLL.$java_awt_Component_repaint__IIII)
 0002:0001950A  Imp  _$java_awt_Component_repaint__J (SNJAWT11.DLL.$java_awt_Component_repaint__J)
 0002:000194FE  Imp  _$java_awt_Component_repaint__JIIII (SNJAWT11.DLL.$java_awt_Component_repaint__JIIII)
 0002:00019666  Imp  _$java_awt_Component_requestFocus__ (SNJAWT11.DLL.$java_awt_Component_requestFocus__)
 0002:000194C8  Imp  _$java_awt_Component_reshape__IIII (SNJAWT11.DLL.$java_awt_Component_reshape__IIII)
 0002:0001948C  Imp  _$java_awt_Component_resize__II (SNJAWT11.DLL.$java_awt_Component_resize__II)
 0002:00019480  Imp  _$java_awt_Component_resize__Ljava_awt_Dimension_2 (SNJAWT11.DLL.$java_awt_Component_resize__Ljava_awt_Dimension_2)
 0002:00019420  Imp  _$java_awt_Component_setBackground__Ljava_awt_Color_2 (SNJAWT11.DLL.$java_awt_Component_setBackground__Ljava_awt_Color_2)
 0002:0001946E  Imp  _$java_awt_Component_setBounds__IIII (SNJAWT11.DLL.$java_awt_Component_setBounds__IIII)
 0002:000194C2  Imp  _$java_awt_Component_setBounds__Ljava_awt_Rectangle_2 (SNJAWT11.DLL.$java_awt_Component_setBounds__Ljava_awt_Rectangle_2)
 0002:000194CE  Imp  _$java_awt_Component_setCursor__Ljava_awt_Cursor_2 (SNJAWT11.DLL.$java_awt_Component_setCursor__Ljava_awt_Cursor_2)
 0002:000193FC  Imp  _$java_awt_Component_setEnabled__Z (SNJAWT11.DLL.$java_awt_Component_setEnabled__Z)
 0002:0001941A  Imp  _$java_awt_Component_setFont__Ljava_awt_Font_2 (SNJAWT11.DLL.$java_awt_Component_setFont__Ljava_awt_Font_2)
 0002:0001942C  Imp  _$java_awt_Component_setForeground__Ljava_awt_Color_2 (SNJAWT11.DLL.$java_awt_Component_setForeground__Ljava_awt_Color_2)
 0002:0001940E  Imp  _$java_awt_Component_setLocale__Ljava_util_Locale_2 (SNJAWT11.DLL.$java_awt_Component_setLocale__Ljava_util_Locale_2)
 0002:00019450  Imp  _$java_awt_Component_setLocation__II (SNJAWT11.DLL.$java_awt_Component_setLocation__II)
 0002:00019444  Imp  _$java_awt_Component_setLocation__Ljava_awt_Point_2 (SNJAWT11.DLL.$java_awt_Component_setLocation__Ljava_awt_Point_2)
 0002:000193D2  Imp  _$java_awt_Component_setName__Ljava_lang_String_2 (SNJAWT11.DLL.$java_awt_Component_setName__Ljava_lang_String_2)
 0002:00019492  Imp  _$java_awt_Component_setSize__II (SNJAWT11.DLL.$java_awt_Component_setSize__II)
 0002:00019486  Imp  _$java_awt_Component_setSize__Ljava_awt_Dimension_2 (SNJAWT11.DLL.$java_awt_Component_setSize__Ljava_awt_Dimension_2)
 0002:000197DA  Imp  _$java_awt_Component_setVisible__Z (SNJAWT11.DLL.$java_awt_Component_setVisible__Z)
 0002:000190AE  Imp  _$java_awt_Component_show__ (SNJAWT11.DLL.$java_awt_Component_show__)
 0002:000193DE  Imp  _$java_awt_Component_show__Z (SNJAWT11.DLL.$java_awt_Component_show__Z)
 0002:00019498  Imp  _$java_awt_Component_size__ (SNJAWT11.DLL.$java_awt_Component_size__)
 0002:00019390  Imp  _$java_awt_Component_toString__ (SNJAWT11.DLL.$java_awt_Component_toString__)
 0002:00019660  Imp  _$java_awt_Component_transferFocus__ (SNJAWT11.DLL.$java_awt_Component_transferFocus__)
 0002:000190CC  Imp  _$java_awt_Component_validate__ (SNJAWT11.DLL.$java_awt_Component_validate__)
 0002:00019126  Imp  _$java_awt_Component_writeObject__Ljava_io_ObjectOutputStream_2 (SNJAWT11.DLL.$java_awt_Component_writeObject__Ljava_io_ObjectOutputStream_2)
 0002:00019720  Imp  _$java_awt_Container_addContainerListener__Ljava_awt_event_ContainerListener_2 (SNJAWT11.DLL.$java_awt_Container_addContainerListener__Ljava_awt_event_ContainerListener_2)
 0002:000196F6  Imp  _$java_awt_Container_addImpl__Ljava_awt_Component_2Ljava_lang_Object_2I (SNJAWT11.DLL.$java_awt_Container_addImpl__Ljava_awt_Component_2Ljava_lang_Object_2I)
 0002:000196B4  Imp  _$java_awt_Container_add__Ljava_awt_Component_2 (SNJAWT11.DLL.$java_awt_Container_add__Ljava_awt_Component_2)
 0002:00019708  Imp  _$java_awt_Container_add__Ljava_awt_Component_2I (SNJAWT11.DLL.$java_awt_Container_add__Ljava_awt_Component_2I)
 0002:00019702  Imp  _$java_awt_Container_add__Ljava_awt_Component_2Ljava_lang_Object_2 (SNJAWT11.DLL.$java_awt_Container_add__Ljava_awt_Component_2Ljava_lang_Object_2)
 0002:000196FC  Imp  _$java_awt_Container_add__Ljava_awt_Component_2Ljava_lang_Object_2I (SNJAWT11.DLL.$java_awt_Container_add__Ljava_awt_Component_2Ljava_lang_Object_2I)
 0002:000196AE  Imp  _$java_awt_Container_add__Ljava_lang_String_2Ljava_awt_Component_2 (SNJAWT11.DLL.$java_awt_Container_add__Ljava_lang_String_2Ljava_awt_Component_2)
 0002:000196D2  Imp  _$java_awt_Container_countComponents__ (SNJAWT11.DLL.$java_awt_Container_countComponents__)
 0002:00019564  Imp  _$java_awt_Container_deliverEvent__Ljava_awt_Event_2 (SNJAWT11.DLL.$java_awt_Container_deliverEvent__Ljava_awt_Event_2)
 0002:000194F2  Imp  _$java_awt_Container_doLayout__ (SNJAWT11.DLL.$java_awt_Container_doLayout__)
 0002:0001949E  Imp  _$java_awt_Container_getAlignmentX__ (SNJAWT11.DLL.$java_awt_Container_getAlignmentX__)
 0002:000194F8  Imp  _$java_awt_Container_getAlignmentY__ (SNJAWT11.DLL.$java_awt_Container_getAlignmentY__)
 0002:00019576  Imp  _$java_awt_Container_getComponentAt__II (SNJAWT11.DLL.$java_awt_Container_getComponentAt__II)
 0002:0001956A  Imp  _$java_awt_Container_getComponentAt__Ljava_awt_Point_2 (SNJAWT11.DLL.$java_awt_Container_getComponentAt__Ljava_awt_Point_2)
 0002:000196D8  Imp  _$java_awt_Container_getComponentCount__ (SNJAWT11.DLL.$java_awt_Container_getComponentCount__)
 0002:000196CC  Imp  _$java_awt_Container_getComponent__I (SNJAWT11.DLL.$java_awt_Container_getComponent__I)
 0002:000196C6  Imp  _$java_awt_Container_getComponents__ (SNJAWT11.DLL.$java_awt_Container_getComponents__)
 0002:000196C0  Imp  _$java_awt_Container_getInsets__ (SNJAWT11.DLL.$java_awt_Container_getInsets__)
 0002:000196DE  Imp  _$java_awt_Container_getLayout__ (SNJAWT11.DLL.$java_awt_Container_getLayout__)
 0002:000194A4  Imp  _$java_awt_Container_getMaximumSize__ (SNJAWT11.DLL.$java_awt_Container_getMaximumSize__)
 0002:000194B0  Imp  _$java_awt_Container_getMinimumSize__ (SNJAWT11.DLL.$java_awt_Container_getMinimumSize__)
 0002:0001970E  Imp  _$java_awt_Container_getMouseEventTarget__II (SNJAWT11.DLL.$java_awt_Container_getMouseEventTarget__II)
 0002:000194BC  Imp  _$java_awt_Container_getPreferredSize__ (SNJAWT11.DLL.$java_awt_Container_getPreferredSize__)
 0002:00019762  Imp  _$java_awt_Container_getWindow__ (SNJAWT11.DLL.$java_awt_Container_getWindow__)
 0002:000196BA  Imp  _$java_awt_Container_insets__ (SNJAWT11.DLL.$java_awt_Container_insets__)
 0002:000194E0  Imp  _$java_awt_Container_invalidate__ (SNJAWT11.DLL.$java_awt_Container_invalidate__)
 0002:00019756  Imp  _$java_awt_Container_isAncestorOf__Ljava_awt_Component_2 (SNJAWT11.DLL.$java_awt_Container_isAncestorOf__Ljava_awt_Component_2)
 0002:000194EC  Imp  _$java_awt_Container_layout__ (SNJAWT11.DLL.$java_awt_Container_layout__)
 0002:0001969C  Imp  _$java_awt_Container_list__Ljava_io_PrintStream_2I (SNJAWT11.DLL.$java_awt_Container_list__Ljava_io_PrintStream_2I)
 0002:00019690  Imp  _$java_awt_Container_list__Ljava_io_PrintWriter_2I (SNJAWT11.DLL.$java_awt_Container_list__Ljava_io_PrintWriter_2I)
 0002:00019570  Imp  _$java_awt_Container_locate__II (SNJAWT11.DLL.$java_awt_Container_locate__II)
 0002:000194AA  Imp  _$java_awt_Container_minimumSize__ (SNJAWT11.DLL.$java_awt_Container_minimumSize__)
 0002:0001972C  Imp  _$java_awt_Container_paintComponents__Ljava_awt_Graphics_2 (SNJAWT11.DLL.$java_awt_Container_paintComponents__Ljava_awt_Graphics_2)
 0002:00019522  Imp  _$java_awt_Container_paint__Ljava_awt_Graphics_2 (SNJAWT11.DLL.$java_awt_Container_paint__Ljava_awt_Graphics_2)
 0002:000192E2  Imp  _$java_awt_Container_paramString__ (SNJAWT11.DLL.$java_awt_Container_paramString__)
 0002:00019600  Imp  _$java_awt_Container_postsOldMouseEvents__ (SNJAWT11.DLL.$java_awt_Container_postsOldMouseEvents__)
 0002:000194B6  Imp  _$java_awt_Container_preferredSize__ (SNJAWT11.DLL.$java_awt_Container_preferredSize__)
 0002:00019726  Imp  _$java_awt_Container_printComponents__Ljava_awt_Graphics_2 (SNJAWT11.DLL.$java_awt_Container_printComponents__Ljava_awt_Graphics_2)
 0002:00019558  Imp  _$java_awt_Container_print__Ljava_awt_Graphics_2 (SNJAWT11.DLL.$java_awt_Container_print__Ljava_awt_Graphics_2)
 0002:00019714  Imp  _$java_awt_Container_processContainerEvent__Ljava_awt_event_ContainerEvent_2 (SNJAWT11.DLL.$java_awt_Container_processContainerEvent__Ljava_awt_event_ContainerEvent_2)
 0002:00019768  Imp  _$java_awt_Container_proxyEnableEvents__J (SNJAWT11.DLL.$java_awt_Container_proxyEnableEvents__J)
 0002:0001975C  Imp  _$java_awt_Container_proxyRequestFocus__Ljava_awt_Component_2 (SNJAWT11.DLL.$java_awt_Container_proxyRequestFocus__Ljava_awt_Component_2)
 0002:000196E4  Imp  _$java_awt_Container_removeAll__ (SNJAWT11.DLL.$java_awt_Container_removeAll__)
 0002:0001971A  Imp  _$java_awt_Container_removeContainerListener__Ljava_awt_event_ContainerListener_2 (SNJAWT11.DLL.$java_awt_Container_removeContainerListener__Ljava_awt_event_ContainerListener_2)
 0002:0001961E  Imp  _$java_awt_Container_removeNotify__ (SNJAWT11.DLL.$java_awt_Container_removeNotify__)
 0002:000196F0  Imp  _$java_awt_Container_remove__I (SNJAWT11.DLL.$java_awt_Container_remove__I)
 0002:000196EA  Imp  _$java_awt_Container_remove__Ljava_awt_Component_2 (SNJAWT11.DLL.$java_awt_Container_remove__Ljava_awt_Component_2)
 0002:00019738  Imp  _$java_awt_Container_setLayout__Ljava_awt_LayoutManager_2 (SNJAWT11.DLL.$java_awt_Container_setLayout__Ljava_awt_LayoutManager_2)
 0002:0001951C  Imp  _$java_awt_Container_update__Ljava_awt_Graphics_2 (SNJAWT11.DLL.$java_awt_Container_update__Ljava_awt_Graphics_2)
 0002:00019732  Imp  _$java_awt_Container_validateTree__ (SNJAWT11.DLL.$java_awt_Container_validateTree__)
 0002:000194E6  Imp  _$java_awt_Container_validate__ (SNJAWT11.DLL.$java_awt_Container_validate__)
 0002:000191B0  Imp  _$java_awt_Cursor__4init_5__I (SNJAWT11.DLL.$java_awt_Cursor__4init_5__I)
 0002:00019810  Imp  _$java_awt_Dialog__4init_5__Ljava_awt_Frame_2Z (SNJAWT11.DLL.$java_awt_Dialog__4init_5__Ljava_awt_Frame_2Z)
 0002:000197E0  Imp  _$java_awt_Dialog_addNotify__ (SNJAWT11.DLL.$java_awt_Dialog_addNotify__)
 0002:000197A4  Imp  _$java_awt_Dialog_getTitle__ (SNJAWT11.DLL.$java_awt_Dialog_getTitle__)
 0002:000197B0  Imp  _$java_awt_Dialog_isModal__ (SNJAWT11.DLL.$java_awt_Dialog_isModal__)
 0002:000197D4  Imp  _$java_awt_Dialog_isResizable__ (SNJAWT11.DLL.$java_awt_Dialog_isResizable__)
 0002:0001964E  Imp  _$java_awt_Dialog_paramString__ (SNJAWT11.DLL.$java_awt_Dialog_paramString__)
 0002:000197AA  Imp  _$java_awt_Dialog_setModal__Z (SNJAWT11.DLL.$java_awt_Dialog_setModal__Z)
 0002:000197CE  Imp  _$java_awt_Dialog_setResizable__Z (SNJAWT11.DLL.$java_awt_Dialog_setResizable__Z)
 0002:0001979E  Imp  _$java_awt_Dialog_setTitle__Ljava_lang_String_2 (SNJAWT11.DLL.$java_awt_Dialog_setTitle__Ljava_lang_String_2)
 0002:000193E4  Imp  _$java_awt_Dialog_show__ (SNJAWT11.DLL.$java_awt_Dialog_show__)
 0002:000191B6  Imp  _$java_awt_Dimension__4init_5__II (SNJAWT11.DLL.$java_awt_Dimension__4init_5__II)
 0002:0001925E  Imp  _$java_awt_FileDialog__4init_5__Ljava_awt_Frame_2 (SNJAWT11.DLL.$java_awt_FileDialog__4init_5__Ljava_awt_Frame_2)
 0002:000192BE  Imp  _$java_awt_FileDialog__4init_5__Ljava_awt_Frame_2Ljava_lang_String_2I (SNJAWT11.DLL.$java_awt_FileDialog__4init_5__Ljava_awt_Frame_2Ljava_lang_String_2I)
 0002:0001927C  Imp  _$java_awt_Font__4init_5__Ljava_lang_String_2II (SNJAWT11.DLL.$java_awt_Font__4init_5__Ljava_lang_String_2II)
 0002:00019270  Imp  _$java_awt_Frame__4init_5__ (SNJAWT11.DLL.$java_awt_Frame__4init_5__)
 0002:00019258  Imp  _$java_awt_Frame_addNotify__ (SNJAWT11.DLL.$java_awt_Frame_addNotify__)
 0002:000191FE  Imp  _$java_awt_Frame_addOwnedWindow__Ljava_awt_Window_2 (SNJAWT11.DLL.$java_awt_Frame_addOwnedWindow__Ljava_awt_Window_2)
 0002:00019204  Imp  _$java_awt_Frame_dispose__ (SNJAWT11.DLL.$java_awt_Frame_dispose__)
 0002:00019252  Imp  _$java_awt_Frame_getCursorType__ (SNJAWT11.DLL.$java_awt_Frame_getCursorType__)
 0002:00019246  Imp  _$java_awt_Frame_getIconImage__ (SNJAWT11.DLL.$java_awt_Frame_getIconImage__)
 0002:0001923A  Imp  _$java_awt_Frame_getMenuBar__ (SNJAWT11.DLL.$java_awt_Frame_getMenuBar__)
 0002:000191F2  Imp  _$java_awt_Frame_getTitle__ (SNJAWT11.DLL.$java_awt_Frame_getTitle__)
 0002:0001922E  Imp  _$java_awt_Frame_isResizable__ (SNJAWT11.DLL.$java_awt_Frame_isResizable__)
 0002:0001921C  Imp  _$java_awt_Frame_paramString__ (SNJAWT11.DLL.$java_awt_Frame_paramString__)
 0002:0001920A  Imp  _$java_awt_Frame_postProcessKeyEvent__Ljava_awt_event_KeyEvent_2 (SNJAWT11.DLL.$java_awt_Frame_postProcessKeyEvent__Ljava_awt_event_KeyEvent_2)
 0002:00019210  Imp  _$java_awt_Frame_readObject__Ljava_io_ObjectInputStream_2 (SNJAWT11.DLL.$java_awt_Frame_readObject__Ljava_io_ObjectInputStream_2)
 0002:000191F8  Imp  _$java_awt_Frame_removeOwnedWindow__Ljava_awt_Window_2 (SNJAWT11.DLL.$java_awt_Frame_removeOwnedWindow__Ljava_awt_Window_2)
 0002:000191EC  Imp  _$java_awt_Frame_remove__Ljava_awt_MenuComponent_2 (SNJAWT11.DLL.$java_awt_Frame_remove__Ljava_awt_MenuComponent_2)
 0002:00019222  Imp  _$java_awt_Frame_setCursor__I (SNJAWT11.DLL.$java_awt_Frame_setCursor__I)
 0002:00019240  Imp  _$java_awt_Frame_setIconImage__Ljava_awt_Image_2 (SNJAWT11.DLL.$java_awt_Frame_setIconImage__Ljava_awt_Image_2)
 0002:00019234  Imp  _$java_awt_Frame_setMenuBar__Ljava_awt_MenuBar_2 (SNJAWT11.DLL.$java_awt_Frame_setMenuBar__Ljava_awt_MenuBar_2)
 0002:00019228  Imp  _$java_awt_Frame_setResizable__Z (SNJAWT11.DLL.$java_awt_Frame_setResizable__Z)
 0002:0001924C  Imp  _$java_awt_Frame_setTitle__Ljava_lang_String_2 (SNJAWT11.DLL.$java_awt_Frame_setTitle__Ljava_lang_String_2)
 0002:00019216  Imp  _$java_awt_Frame_writeObject__Ljava_io_ObjectOutputStream_2 (SNJAWT11.DLL.$java_awt_Frame_writeObject__Ljava_io_ObjectOutputStream_2)
 0002:000197F8  Imp  _$java_awt_Label__4init_5__Ljava_lang_String_2 (SNJAWT11.DLL.$java_awt_Label__4init_5__Ljava_lang_String_2)
 0002:000192CA  Imp  _$java_awt_Label__4init_5__Ljava_lang_String_2I (SNJAWT11.DLL.$java_awt_Label__4init_5__Ljava_lang_String_2I)
 0002:0001932A  Imp  _$java_awt_List__4init_5__I (SNJAWT11.DLL.$java_awt_List__4init_5__I)
 0002:000192A6  Imp  _$java_awt_MenuBar__4init_5__ (SNJAWT11.DLL.$java_awt_MenuBar__4init_5__)
 0002:0001928E  Imp  _$java_awt_MenuItem__4init_5__Ljava_lang_String_2 (SNJAWT11.DLL.$java_awt_MenuItem__4init_5__Ljava_lang_String_2)
 0002:000192B8  Imp  _$java_awt_MenuShortcut__4init_5__IZ (SNJAWT11.DLL.$java_awt_MenuShortcut__4init_5__IZ)
 0002:0001929A  Imp  _$java_awt_Menu__4init_5__Ljava_lang_String_2 (SNJAWT11.DLL.$java_awt_Menu__4init_5__Ljava_lang_String_2)
 0002:000192B2  Imp  _$java_awt_Panel__4init_5__ (SNJAWT11.DLL.$java_awt_Panel__4init_5__)
 0002:0001919E  Imp  _$java_awt_Point__4init_5__II (SNJAWT11.DLL.$java_awt_Point__4init_5__II)
 0002:00019048  Imp  _$java_awt_Rectangle__4init_5__IIII (SNJAWT11.DLL.$java_awt_Rectangle__4init_5__IIII)
 0002:00019192  Imp  _$java_awt_Rectangle__4init_5__Ljava_awt_Point_2Ljava_awt_Dimension_2 (SNJAWT11.DLL.$java_awt_Rectangle__4init_5__Ljava_awt_Point_2Ljava_awt_Dimension_2)
 0002:000191C2  Imp  _$java_awt_ScrollPane__4init_5__I (SNJAWT11.DLL.$java_awt_ScrollPane__4init_5__I)
 0002:000192D0  Imp  _$java_awt_TextArea__4init_5__Ljava_lang_String_2III (SNJAWT11.DLL.$java_awt_TextArea__4init_5__Ljava_lang_String_2III)
 0002:000197EC  Imp  _$java_awt_TextField__4init_5__ (SNJAWT11.DLL.$java_awt_TextField__4init_5__)
 0002:000191E0  Imp  _$java_awt_Toolkit_getDefaultToolkit__ (SNJAWT11.DLL.$java_awt_Toolkit_getDefaultToolkit__)
 0002:000191DA  Imp  _$java_awt_Toolkit_getSystemEventQueue__ (SNJAWT11.DLL.$java_awt_Toolkit_getSystemEventQueue__)
 0002:000192F4  Imp  _$java_awt_Window__4init_5__Ljava_awt_Frame_2 (SNJAWT11.DLL.$java_awt_Window__4init_5__Ljava_awt_Frame_2)
 0002:000192EE  Imp  _$java_awt_Window_addNotify__ (SNJAWT11.DLL.$java_awt_Window_addNotify__)
 0002:0001976E  Imp  _$java_awt_Window_addWindowListener__Ljava_awt_event_WindowListener_2 (SNJAWT11.DLL.$java_awt_Window_addWindowListener__Ljava_awt_event_WindowListener_2)
 0002:000195B8  Imp  _$java_awt_Window_dispatchEventImpl__Ljava_awt_AWTEvent_2 (SNJAWT11.DLL.$java_awt_Window_dispatchEventImpl__Ljava_awt_AWTEvent_2)
 0002:00019786  Imp  _$java_awt_Window_dispose__ (SNJAWT11.DLL.$java_awt_Window_dispose__)
 0002:000195B2  Imp  _$java_awt_Window_eventEnabled__Ljava_awt_AWTEvent_2 (SNJAWT11.DLL.$java_awt_Window_eventEnabled__Ljava_awt_AWTEvent_2)
 0002:000197B6  Imp  _$java_awt_Window_getFocusOwner__ (SNJAWT11.DLL.$java_awt_Window_getFocusOwner__)
 0002:00019414  Imp  _$java_awt_Window_getLocale__ (SNJAWT11.DLL.$java_awt_Window_getLocale__)
 0002:000193BA  Imp  _$java_awt_Window_getToolkit__ (SNJAWT11.DLL.$java_awt_Window_getToolkit__)
 0002:00019774  Imp  _$java_awt_Window_getWarningString__ (SNJAWT11.DLL.$java_awt_Window_getWarningString__)
 0002:000197BC  Imp  _$java_awt_Window_handleTabEvent__Ljava_awt_event_KeyEvent_2 (SNJAWT11.DLL.$java_awt_Window_handleTabEvent__Ljava_awt_event_KeyEvent_2)
 0002:00019408  Imp  _$java_awt_Window_isShowing__ (SNJAWT11.DLL.$java_awt_Window_isShowing__)
 0002:00019798  Imp  _$java_awt_Window_nextFocus__Ljava_awt_Component_2 (SNJAWT11.DLL.$java_awt_Window_nextFocus__Ljava_awt_Component_2)
 0002:00019792  Imp  _$java_awt_Window_pack__ (SNJAWT11.DLL.$java_awt_Window_pack__)
 0002:000193A2  Imp  _$java_awt_Window_postEvent__Ljava_awt_Event_2 (SNJAWT11.DLL.$java_awt_Window_postEvent__Ljava_awt_Event_2)
 0002:00019744  Imp  _$java_awt_Window_postProcessKeyEvent__Ljava_awt_event_KeyEvent_2 (SNJAWT11.DLL.$java_awt_Window_postProcessKeyEvent__Ljava_awt_event_KeyEvent_2)
 0002:0001978C  Imp  _$java_awt_Window_postWindowEvent__I (SNJAWT11.DLL.$java_awt_Window_postWindowEvent__I)
 0002:0001974A  Imp  _$java_awt_Window_preProcessKeyEvent__Ljava_awt_event_KeyEvent_2 (SNJAWT11.DLL.$java_awt_Window_preProcessKeyEvent__Ljava_awt_event_KeyEvent_2)
 0002:000195C4  Imp  _$java_awt_Window_processEvent__Ljava_awt_AWTEvent_2 (SNJAWT11.DLL.$java_awt_Window_processEvent__Ljava_awt_AWTEvent_2)
 0002:000197C2  Imp  _$java_awt_Window_processWindowEvent__Ljava_awt_event_WindowEvent_2 (SNJAWT11.DLL.$java_awt_Window_processWindowEvent__Ljava_awt_event_WindowEvent_2)
 0002:0001967E  Imp  _$java_awt_Window_readObject__Ljava_io_ObjectInputStream_2 (SNJAWT11.DLL.$java_awt_Window_readObject__Ljava_io_ObjectInputStream_2)
 0002:000197C8  Imp  _$java_awt_Window_removeWindowListener__Ljava_awt_event_WindowListener_2 (SNJAWT11.DLL.$java_awt_Window_removeWindowListener__Ljava_awt_event_WindowListener_2)
 0002:00019750  Imp  _$java_awt_Window_setFocusOwner__Ljava_awt_Component_2 (SNJAWT11.DLL.$java_awt_Window_setFocusOwner__Ljava_awt_Component_2)
 0002:000192E8  Imp  _$java_awt_Window_show__ (SNJAWT11.DLL.$java_awt_Window_show__)
 0002:0001977A  Imp  _$java_awt_Window_toBack__ (SNJAWT11.DLL.$java_awt_Window_toBack__)
 0002:00019780  Imp  _$java_awt_Window_toFront__ (SNJAWT11.DLL.$java_awt_Window_toFront__)
 0002:0001973E  Imp  _$java_awt_Window_transferFocus__Ljava_awt_Component_2 (SNJAWT11.DLL.$java_awt_Window_transferFocus__Ljava_awt_Component_2)
 0002:00019684  Imp  _$java_awt_Window_writeObject__Ljava_io_ObjectOutputStream_2 (SNJAWT11.DLL.$java_awt_Window_writeObject__Ljava_io_ObjectOutputStream_2)
 0002:00019336  Imp  _$java_awt_event_FocusAdapter__4init_5__ (SNJAWT11.DLL.$java_awt_event_FocusAdapter__4init_5__)
 0002:000192FA  Imp  _$java_awt_event_MouseAdapter__4init_5__ (SNJAWT11.DLL.$java_awt_event_MouseAdapter__4init_5__)
 0002:00019078  Imp  _$java_awt_event_MouseAdapter_mouseClicked__Ljava_awt_event_MouseEvent_2 (SNJAWT11.DLL.$java_awt_event_MouseAdapter_mouseClicked__Ljava_awt_event_MouseEvent_2)
 0002:00019318  Imp  _$java_awt_event_MouseAdapter_mouseEntered__Ljava_awt_event_MouseEvent_2 (SNJAWT11.DLL.$java_awt_event_MouseAdapter_mouseEntered__Ljava_awt_event_MouseEvent_2)
 0002:0001931E  Imp  _$java_awt_event_MouseAdapter_mouseExited__Ljava_awt_event_MouseEvent_2 (SNJAWT11.DLL.$java_awt_event_MouseAdapter_mouseExited__Ljava_awt_event_MouseEvent_2)
 0002:0001930C  Imp  _$java_awt_event_MouseAdapter_mousePressed__Ljava_awt_event_MouseEvent_2 (SNJAWT11.DLL.$java_awt_event_MouseAdapter_mousePressed__Ljava_awt_event_MouseEvent_2)
 0002:00019312  Imp  _$java_awt_event_MouseAdapter_mouseReleased__Ljava_awt_event_MouseEvent_2 (SNJAWT11.DLL.$java_awt_event_MouseAdapter_mouseReleased__Ljava_awt_event_MouseEvent_2)
 0002:00019060  Imp  _$java_awt_event_MouseMotionAdapter__4init_5__ (SNJAWT11.DLL.$java_awt_event_MouseMotionAdapter__4init_5__)
 0002:00019072  Imp  _$java_awt_event_MouseMotionAdapter_mouseMoved__Ljava_awt_event_MouseEvent_2 (SNJAWT11.DLL.$java_awt_event_MouseMotionAdapter_mouseMoved__Ljava_awt_event_MouseEvent_2)
 0002:0001934E  Imp  _$java_awt_event_WindowAdapter__4init_5__ (SNJAWT11.DLL.$java_awt_event_WindowAdapter__4init_5__)
 0002:00019372  Imp  _$java_awt_event_WindowAdapter_windowActivated__Ljava_awt_event_WindowEvent_2 (SNJAWT11.DLL.$java_awt_event_WindowAdapter_windowActivated__Ljava_awt_event_WindowEvent_2)
 0002:00019360  Imp  _$java_awt_event_WindowAdapter_windowClosed__Ljava_awt_event_WindowEvent_2 (SNJAWT11.DLL.$java_awt_event_WindowAdapter_windowClosed__Ljava_awt_event_WindowEvent_2)
 0002:00019378  Imp  _$java_awt_event_WindowAdapter_windowDeactivated__Ljava_awt_event_WindowEvent_2 (SNJAWT11.DLL.$java_awt_event_WindowAdapter_windowDeactivated__Ljava_awt_event_WindowEvent_2)
 0002:0001936C  Imp  _$java_awt_event_WindowAdapter_windowDeiconified__Ljava_awt_event_WindowEvent_2 (SNJAWT11.DLL.$java_awt_event_WindowAdapter_windowDeiconified__Ljava_awt_event_WindowEvent_2)
 0002:00019366  Imp  _$java_awt_event_WindowAdapter_windowIconified__Ljava_awt_event_WindowEvent_2 (SNJAWT11.DLL.$java_awt_event_WindowAdapter_windowIconified__Ljava_awt_event_WindowEvent_2)
 0002:00019324  Imp  _$java_awt_event_WindowAdapter_windowOpened__Ljava_awt_event_WindowEvent_2 (SNJAWT11.DLL.$java_awt_event_WindowAdapter_windowOpened__Ljava_awt_event_WindowEvent_2)
 0002:000191CE  Imp  _$java_awt_event_WindowEvent__4init_5__Ljava_awt_Window_2I (SNJAWT11.DLL.$java_awt_event_WindowEvent__4init_5__Ljava_awt_Window_2I)
 0002:000198F4  Imp  _$java_io_FileInputStream__4init_5__Ljava_lang_String_2 (SNJRT11.DLL.$java_io_FileInputStream__4init_5__Ljava_lang_String_2)
 0002:00019900  Imp  _$java_io_FileOutputStream__4init_5__Ljava_lang_String_2 (SNJRT11.DLL.$java_io_FileOutputStream__4init_5__Ljava_lang_String_2)
 0002:000198E8  Imp  _$java_io_ObjectInputStream__4init_5__Ljava_io_InputStream_2 (SNJRT11.DLL.$java_io_ObjectInputStream__4init_5__Ljava_io_InputStream_2)
 0002:000198E2  Imp  _$java_io_ObjectInputStream_readObject__ (SNJRT11.DLL.$java_io_ObjectInputStream_readObject__)
 0002:000198D0  Imp  _$java_io_ObjectOutputStream__4init_5__Ljava_io_OutputStream_2 (SNJRT11.DLL.$java_io_ObjectOutputStream__4init_5__Ljava_io_OutputStream_2)
 0002:000198CA  Imp  _$java_io_ObjectOutputStream_writeObject__Ljava_lang_Object_2 (SNJRT11.DLL.$java_io_ObjectOutputStream_writeObject__Ljava_lang_Object_2)
 0002:0001984C  Imp  _$java_lang_Integer__4init_5__I (SNJRT11.DLL.$java_lang_Integer__4init_5__I)
 0002:00019840  Imp  _$java_lang_Integer_intValue__ (SNJRT11.DLL.$java_lang_Integer_intValue__)
 0002:00019864  Imp  _$java_lang_Integer_parseInt__Ljava_lang_String_2 (SNJRT11.DLL.$java_lang_Integer_parseInt__Ljava_lang_String_2)
 0002:0001991E  Imp  _$java_lang_Object__4init_5__ (SNJRT11.DLL.$java_lang_Object__4init_5__)
 0002:000199BA  Imp  _$java_lang_Object_clone__ (SNJRT11.DLL.$java_lang_Object_clone__)
 0002:000199B4  Imp  _$java_lang_Object_equals__Ljava_lang_Object_2 (SNJRT11.DLL.$java_lang_Object_equals__Ljava_lang_Object_2)
 0002:000199E4  Imp  _$java_lang_Object_finalize__ (SNJRT11.DLL.$java_lang_Object_finalize__)
 0002:000199A8  Imp  _$java_lang_Object_getClass__ (SNJRT11.DLL.$java_lang_Object_getClass__)
 0002:000199AE  Imp  _$java_lang_Object_hashCode__ (SNJRT11.DLL.$java_lang_Object_hashCode__)
 0002:000199CC  Imp  _$java_lang_Object_notifyAll__ (SNJRT11.DLL.$java_lang_Object_notifyAll__)
 0002:000199C6  Imp  _$java_lang_Object_notify__ (SNJRT11.DLL.$java_lang_Object_notify__)
 0002:000199C0  Imp  _$java_lang_Object_toString__ (SNJRT11.DLL.$java_lang_Object_toString__)
 0002:000199DE  Imp  _$java_lang_Object_wait__ (SNJRT11.DLL.$java_lang_Object_wait__)
 0002:000199D2  Imp  _$java_lang_Object_wait__J (SNJRT11.DLL.$java_lang_Object_wait__J)
 0002:000199D8  Imp  _$java_lang_Object_wait__JI (SNJRT11.DLL.$java_lang_Object_wait__JI)
 0002:0001993C  Imp  _$java_lang_Runtime_getRuntime__ (SNJRT11.DLL.$java_lang_Runtime_getRuntime__)
 0002:00019966  Imp  _$java_lang_StringBuffer__4init_5__ (SNJRT11.DLL.$java_lang_StringBuffer__4init_5__)
 0002:0001995A  Imp  _$java_lang_StringBuffer_append__Ljava_lang_String_2 (SNJRT11.DLL.$java_lang_StringBuffer_append__Ljava_lang_String_2)
 0002:0001994E  Imp  _$java_lang_StringBuffer_toString__ (SNJRT11.DLL.$java_lang_StringBuffer_toString__)
 0002:00019876  Imp  _$java_lang_String__4init_5__Ljava_lang_String_2 (SNJRT11.DLL.$java_lang_String__4init_5__Ljava_lang_String_2)
 0002:00019960  Imp  _$java_lang_String_substring__II (SNJRT11.DLL.$java_lang_String_substring__II)
 0002:0001983A  Imp  _$java_lang_String_trim__ (SNJRT11.DLL.$java_lang_String_trim__)
 0002:0001985E  Imp  _$java_lang_String_valueOf__I (SNJRT11.DLL.$java_lang_String_valueOf__I)
 0002:000198BE  Imp  _$java_lang_System_exit__I (SNJRT11.DLL.$java_lang_System_exit__I)
 0002:00019906  Imp  _$java_text_DateFormat_format__Ljava_util_Date_2 (SNJRT11.DLL.$java_text_DateFormat_format__Ljava_util_Date_2)
 0002:0001990C  Imp  _$java_text_SimpleDateFormat__4init_5__Ljava_lang_String_2 (SNJRT11.DLL.$java_text_SimpleDateFormat__4init_5__Ljava_lang_String_2)
 0002:000198B2  Imp  _$java_util_Date__4init_5__ (SNJRT11.DLL.$java_util_Date__4init_5__)
 0002:0001988E  Imp  _$java_util_Vector__4init_5__ (SNJRT11.DLL.$java_util_Vector__4init_5__)
 0002:00019978  Imp  _$java_util_Vector_addElement__Ljava_lang_Object_2 (SNJRT11.DLL.$java_util_Vector_addElement__Ljava_lang_Object_2)
 0002:00019846  Imp  _$java_util_Vector_contains__Ljava_lang_Object_2 (SNJRT11.DLL.$java_util_Vector_contains__Ljava_lang_Object_2)
 0002:00019996  Imp  _$java_util_Vector_elementAt__I (SNJRT11.DLL.$java_util_Vector_elementAt__I)
 0002:000198A6  Imp  _$java_util_Vector_elements__ (SNJRT11.DLL.$java_util_Vector_elements__)
 0002:00019984  Imp  _$java_util_Vector_removeElementAt__I (SNJRT11.DLL.$java_util_Vector_removeElementAt__I)
 0002:00019894  Imp  _$java_util_Vector_removeElement__Ljava_lang_Object_2 (SNJRT11.DLL.$java_util_Vector_removeElement__Ljava_lang_Object_2)
 0002:0001989A  Imp  _$java_util_Vector_size__ (SNJRT11.DLL.$java_util_Vector_size__)
 0002:00019B16  Imp  _$symantec_itools_awt_ImageButton__4init_5__ (symbeans.dll.$symantec_itools_awt_ImageButton__4init_5__)
 0002:00019AEC  Imp  _$symantec_itools_awt_MultiList__4init_5__ (symbeans.dll.$symantec_itools_awt_MultiList__4init_5__)
 0002:00019AF8  Imp  _$symantec_itools_awt_RadioButtonGroupPanel__4init_5__ (symbeans.dll.$symantec_itools_awt_RadioButtonGroupPanel__4init_5__)
 0002:00019B0A  Imp  _$symantec_itools_awt_StatusBar__4init_5__ (symbeans.dll.$symantec_itools_awt_StatusBar__4init_5__)
 0002:00019AFE  Imp  _$symantec_itools_awt_util_ToolBarPanel__4init_5__ (symbeans.dll.$symantec_itools_awt_util_ToolBarPanel__4init_5__)
 0002:00019B28  Imp  _$symantec_itools_multimedia_ImageViewer__4init_5__ (symbeans.dll.$symantec_itools_multimedia_ImageViewer__4init_5__)
 0002:00019B22  Imp  _$symantec_itools_net_RelativeURL_getURL__Ljava_lang_String_2 (symbeans.dll.$symantec_itools_net_RelativeURL_getURL__Ljava_lang_String_2)
 0002:00019A38  Imp  _CloseHandle@4       (KERNEL32.DLL.CloseHandle)
 0002:00019AB0  Imp  _CreateSemaphoreA@16 (KERNEL32.DLL.CreateSemaphoreA)
 0002:00019A2C  Imp  _CreateThread@24     (KERNEL32.DLL.CreateThread)
 0002:00019A4A  Imp  _DeleteCriticalSection@4 (KERNEL32.DLL.DeleteCriticalSection)
 0002:00019A8C  Imp  _EnterCriticalSection@4 (KERNEL32.DLL.EnterCriticalSection)
 0002:00019A80  Imp  _ExitProcess@4       (KERNEL32.DLL.ExitProcess)
 0002:0001645C       _FDIV_DETECT               0041D45C
 0003:0001A63D       _FE_DFL_ENV                0043B63D
 0002:00019A08  Imp  _FileTimeToDosDateTime@12 (KERNEL32.DLL.FileTimeToDosDateTime)
 0002:000199FC  Imp  _FindClose@4         (KERNEL32.DLL.FindClose)
 0002:00019A02  Imp  _FindFirstFileA@8    (KERNEL32.DLL.FindFirstFileA)
 0002:00019A0E  Imp  _FindNextFileA@8     (KERNEL32.DLL.FindNextFileA)
 0002:00019A98  Imp  _FreeEnvironmentStringsA@4 (KERNEL32.DLL.FreeEnvironmentStringsA)
 0002:000199F6  Imp  _GetACP@0            (KERNEL32.DLL.GetACP)
 0002:000199EA  Imp  _GetCPInfo@8         (KERNEL32.DLL.GetCPInfo)
 0002:00019A62  Imp  _GetCommandLineA@0   (KERNEL32.DLL.GetCommandLineA)
 0002:00019ABC  Imp  _GetCurrentThreadId@0 (KERNEL32.DLL.GetCurrentThreadId)
 0002:00019AA4  Imp  _GetEnvironmentStrings@0 (KERNEL32.DLL.GetEnvironmentStrings)
 0002:00019A26  Imp  _GetEnvironmentVariableA@12 (KERNEL32.DLL.GetEnvironmentVariableA)
 0002:00019AC2  Imp  _GetLastError@0      (KERNEL32.DLL.GetLastError)
 0002:00019A44  Imp  _GetModuleFileNameA@12 (KERNEL32.DLL.GetModuleFileNameA)
 0002:00019A5C  Imp  _GetModuleHandleA@4  (KERNEL32.DLL.GetModuleHandleA)
 0002:000199F0  Imp  _GetOEMCP@0          (KERNEL32.DLL.GetOEMCP)
 0002:00019A1A  Imp  _GetProcAddress@8    (KERNEL32.DLL.GetProcAddress)
 0002:00019A7A  Imp  _GetStdHandle@4      (KERNEL32.DLL.GetStdHandle)
 0002:00019ADA  Imp  _GetStringTypeA@20   (KERNEL32.DLL.GetStringTypeA)
 0002:00019A56  Imp  _GetTickCount@0      (KERNEL32.DLL.GetTickCount)
 0002:00019A9E  Imp  _GetVersion@0        (KERNEL32.DLL.GetVersion)
 0002:00019A86  Imp  _InitializeCriticalSection@4 (KERNEL32.DLL.InitializeCriticalSection)
 0002:00019AD4  Imp  _LCMapStringA@24     (KERNEL32.DLL.LCMapStringA)
 0002:00019A92  Imp  _LeaveCriticalSection@4 (KERNEL32.DLL.LeaveCriticalSection)
 0002:00019A14  Imp  _LoadLibraryA@4      (KERNEL32.DLL.LoadLibraryA)
 0002:00019AE0  Imp  _MessageBoxA@16      (user32.DLL.MessageBoxA)
 0002:00019ACE  Imp  _MultiByteToWideChar@24 (KERNEL32.DLL.MultiByteToWideChar)
 0002:00019AB6  Imp  _ReleaseSemaphore@12 (KERNEL32.DLL.ReleaseSemaphore)
 0002:00019A3E  Imp  _RtlUnwind@16        (KERNEL32.DLL.RtlUnwind)
 0002:00019822  Imp  _SNJRegisterModule   (SNJRT11.DLL.SNJRegisterModule)
 0002:00019828  Imp  _SNJRunMain          (SNJRT11.DLL.SNJRunMain)
 0002:00019A32  Imp  _SetThreadPriority@8 (KERNEL32.DLL.SetThreadPriority)
 0002:00019A50  Imp  _UnhandledExceptionFilter@4 (KERNEL32.DLL.UnhandledExceptionFilter)
 0002:00019A68  Imp  _VirtualAlloc@16     (KERNEL32.DLL.VirtualAlloc)
 0002:00019A6E  Imp  _VirtualFree@12      (KERNEL32.DLL.VirtualFree)
 0002:00019A20  Imp  _VirtualProtect@16   (KERNEL32.DLL.VirtualProtect)
 0002:00019AAA  Imp  _WaitForSingleObject@8 (KERNEL32.DLL.WaitForSingleObject)
 0002:00019AC8  Imp  _WideCharToMultiByte@32 (KERNEL32.DLL.WideCharToMultiByte)
 0002:00019A74  Imp  _WriteConsoleA@20    (KERNEL32.DLL.WriteConsoleA)
 0003:0001A488       __8087                     0043B488
 0002:00015CE0       __8087_init                0041CCE0
 0003:0001A488       __80x87                    0043B488
 0002:00015C4A       __87TOPSW@                 0041CC4A
 0002:00015C5A       __DBLINT87@                0041CC5A
 0002:00015C7B       __DBLLNG87@                0041CC7B
 0002:00015C4F       __DBLTO87@                 0041CC4F
 0002:000158AA       __DBLULNG@                 0041C8AA
 0002:0001527C       __DOSIGN                   0041C27C
 0002:00015C46       __DTST87@                  0041CC46
 0002:00015BF0       __FCOMPP@                  0041CBF0
 0002:00016440       __FDIVP                    0041D440
 0002:0001658E       __FEEXCEPT                 0041D58E
 0002:000165A2       __FEROUND                  0041D5A2
 0002:00014ED8       __FLOATCVT                 0041BED8
 0002:00015C97       __FLTTO87@                 0041CC97
 0002:00015C0E       __FTEST0@                  0041CC0E
 0002:00015C2E       __FTEST@                   0041CC2E
 0002:000165AC       __InitSemaphoreSys         0041D5AC
 0002:0001602E       __LCMP@                    0041D02E
 0002:00015FF6       __LDIV@                    0041CFF6
 0002:00015F20       __LMUL@                    0041CF20
 0002:0001669C       __ReleaseSemaphore         0041D69C
 0002:00013CA8       __SCANFLOAT                0041ACA8
 0002:00015E08       __SET_ERRNO                0041CE08
 0002:00018FB4       __SET_NT_ERRNO             0041FFB4
 0002:00013898       __STI_fltused              0041A898
 0002:00015F78       __ULDIV@                   0041CF78
 0002:00015895       __ULNGDBL@                 0041C895
 0002:0001551C       __WDOSIGN                  0041C51C
 0002:000154C4       __WFLOATCVT                0041C4C4
 0002:000143F0       __WSCANFLOAT               0041B3F0
 0002:00016618       __WaitSemaphore            0041D618
 0002:000169A0       ___SD?%___heap32_multpool_cpp2346133860_ 0041D9A0
 0002:000169B4       ___SI?%___heap32_multpool_cpp2346133860_ 0041D9B4
 0003:0001A631       ___argc                    0043B631
 0003:0001A635       ___argv                    0043B635
 0002:0001827C       ___build_environ           0041F27C
 0002:00017C30       ___callve                  0041EC30
 0002:00018910       ___cc_array                0041F910
 0002:00018916       ___cc_handles              0041F916
 0002:0001891C       ___cc_handles_length       0041F91C
 0003:0001B910       ___cpp_init_ptr            0043C910
 0002:00016583       ___doserrno                0041D583
 0002:0001583B       ___dtype                   0041C83B
 0002:00017550       ___faterr                  0041E550
 0002:000138C8       ___floatfmt                0041A8C8
 0003:0001A950       ___fp_sigfunc              0043B950
 0002:000152B0       ___fpclassify_d            0041C2B0
 0003:0001A928       ___init_environ_ptr        0043B928
 0003:0001A9B0       ___init_mbctype_ptr        0043B9B0
 0002:000187B0       ___initmbctype             0041F7B0
 0002:00017607       ___itoa                    0041E607
 0003:0001A48C       ___locale_chars            0043B48C
 0003:0001A2B4       ___locale_codepage         0043B2B4
 0003:0001A330       ___locale_decimal_const    0043B330
 0003:0001A334       ___locale_decpoint         0043B334
 0003:0001A2B8       ___locale_ident            0043B2B8
 0003:0001A2B0       ___locale_mbsize           0043B2B0
 0003:0001ABAC       ___mb_cpinfo               0043BBAC
 0003:0001AC4C       ___mb_cpinfoN              0043BC4C
 0003:0001AABC       ___mbcodepage              0043BABC
 0003:0001AAB8       ___mbcpinfo                0043BAB8
 0003:0001AAC0       ___mblcid                  0043BAC0
 0003:0001B914       ___module_handle           0043C914
 0003:0001B5CC       ___pfloatfmt               0043C5CC
 0003:0001B5C8       ___pscanfloat              0043C5C8
 0002:00017C18       ___rtl_clean_cppexceptions 0041EC18
 0003:0001A8DC       ___rtl_criticalsection     0043B8DC
 0002:00017C00       ___rtl_init_cppexceptions  0041EC00
 0003:0001A954       ___sigill_sigfunc          0043B954
 0003:0001A958       ___sigsegv_sigfunc         0043B958
 0003:0001A91C       ___terminate_done          0043B91C
 0003:0001A4A8       ___thdtbl                  0043B4A8
 0002:00016532       ___threadid                0041D532
 0003:0001A9A8       ___ve_debughook            0043B9A8
 0003:0001A639       ___wargv                   0043B639
 0002:00013F98       ___wfloatfmt               0041AF98
 0003:00019F24       ___wildcard                0043AF24
 0003:0001B5C4       ___wpfloatfmt              0043C5C4
 0003:0001B5C0       ___wpscanfloat             0043C5C0
 0002:00017F24       ___xcfilter                0041EF24
 0003:0001A940       __acmdln                   0043B940
 0003:0001A904       __acrtused_con             0043B904
 0002:000174AC       __addthreadtableentry      0041E4AC
 0002:000187C4       __allocinit                0041F7C4
 0003:0001A631       __argc                     0043B631
 0003:0001A635       __argv                     0043B635
 0003:0001A5E8       __atexit_max               0043B5E8
 0003:0001B4B4       __atexit_tbl               0043C4B4
 0003:0001A5E4       __atexitp                  0043B5E4
 0003:0001A944       __atopsp                   0043B944
 0002:00018814       __call_except_block        0041F814
 0003:000011E0       __cast_$ClassPowerCase     004221E0
 0003:000005C0       __cast_$ClassYourdon_Deposito 004215C0
 0003:00000580       __cast_$ClassYourdon_ElementoEssencial 00421580
 0003:0000D4D0       __cast_$ClassYourdon_Entidade 0042E4D0
 0003:000180D0       __cast_$ClassYourdon_Evento 004390D0
 0003:00014B50       __cast_$ClassYourdon_Fluxo 00435B50
 0003:0000D500       __cast_$ClassYourdon_Processo 0042E500
 0003:00008F30       __cast_$ClassYourdon_Projeto 00429F30
 0003:0000D4A0       __cast_$ClassYourdon_Simbolo 0042E4A0
 0003:0000D590       __cast_$ClassYourdon_SimboloFluxo 0042E590
 0003:0000D530       __cast_$ClassYourdon_SimboloMovel 0042E530
 0003:0000D560       __cast_$ClassYourdon_SimboloProcesso 0042E560
 0003:00001100       __cast_$Classjava_awt_Component 00422100
 0003:00001140       __cast_$Classjava_awt_Container 00422140
 0003:000011B0       __cast_$Classjava_awt_Frame 004221B0
 0003:00001090       __cast_$Classjava_awt_MenuContainer 00422090
 0003:00001180       __cast_$Classjava_awt_Window 00422180
 0003:000010C0       __cast_$Classjava_awt_image_ImageObserver 004220C0
 0003:00000550       __cast_$Classjava_io_Serializable 00421550
 0003:00000520       __cast_$Classjava_lang_Object 00421520
 0003:0000D470       __cast_$Classjava_util_Enumeration 0042E470
 0002:000173B0       __cinit                    0041E3B0
 0002:00015CA3       __clear87                  0041CCA3
 0002:000187E0       __clearbss                 0041F7E0
 0002:00015CAC       __control87                0041CCAC
 0003:0001A713       __cppeh_sv                 0043B713
 0003:0001A5EC       __cpumode                  0043B5EC
 0003:0001A0AC       __ctype                    0043B0AC
 0002:00017578       __delete_rtl_critsection   0041E578
 0002:00017472       __dodtors                  0041E472
 0003:0001A6D3       __doserrno                 0043B6D3
 0003:0001AE00       __edata                    0043BE00
 0003:0001BD80       __end                      0043CD80
 0003:0001A920       __environ                  0043B920
 0003:0001A629       __envptr                   0043B629
 0002:0001657A       __errno                    0041D57A
 0002:0001656A       __errno_set                0041D56A
 0002:00017E44       __except_handler3          0041EE44
 0000:00000000  Abs  __except_list              00000000
 0002:00017C60       __exit                     0041EC60
 0002:00017BB4       __fatexit                  0041EBB4
 0003:0001BD6C       __fcloseallp               0043CD6C
 0003:0001A68F       __fe_cur_env               0043B68F
 0002:00013894       __fltused                  0041A894
 0002:00015CD3       __fpreset                  0041CCD3
 0002:000164ED       __getthreaddata            0041D4ED
 0002:00018850       __global_unwind            0041F850
 0003:0001B6E8       __hdlSemHandles            0043C6E8
 0003:0001BD68       __hookexitp                0043CD68
 0003:0001B5D4       __iSemLockCtrs             0043C5D4
 0003:0001B918       __iSemNestCount            0043C918
 0003:0001BB40       __iSemThreadIds            0043CB40
 0003:000000FC       __imp__$ClassAboutDialog_9SymAction 004210FC
 0003:000000F8       __imp__$ClassAboutDialog_9SymWindow 004210F8
 0003:000000D0       __imp__$ClassConfirmarSalvarDialog 004210D0
 0003:000000C8       __imp__$ClassConfirmarSalvarDialog_9SymAction 004210C8
 0003:000000C4       __imp__$ClassConfirmarSalvarDialog_9SymWindow 004210C4
 0003:000000F4       __imp__$ClassContextoDialog 004210F4
 0003:00000148       __imp__$ClassContextoDialog_9SymAction 00421148
 0003:00000144       __imp__$ClassContextoDialog_9SymWindow 00421144
 0003:000000E8       __imp__$ClassDFDDialog     004210E8
 0003:0000010C       __imp__$ClassDFDDialog_9SymAction 0042110C
 0003:00000108       __imp__$ClassDFDDialog_9SymWindow 00421108
 0003:00000110       __imp__$ClassDiagramaCanvas 00421110
 0003:00000190       __imp__$ClassDiagramaCanvas_9DiagramaCanvasMouseListener 00421190
 0003:0000018C       __imp__$ClassDiagramaCanvas_9DiagramaCanvasMouseMotionListener 0042118C
 0003:00000098       __imp__$ClassEditarDepositoDialog 00421098
 0003:00000090       __imp__$ClassEditarDepositoDialog_9SymAction 00421090
 0003:00000094       __imp__$ClassEditarDepositoDialog_9SymFocus 00421094
 0003:0000008C       __imp__$ClassEditarDepositoDialog_9SymWindow 0042108C
 0003:000000AC       __imp__$ClassEditarEntidadeDialog 004210AC
 0003:00000198       __imp__$ClassEditarEntidadeDialog_9SymAction 00421198
 0003:0000019C       __imp__$ClassEditarEntidadeDialog_9SymFocus 0042119C
 0003:00000194       __imp__$ClassEditarEntidadeDialog_9SymWindow 00421194
 0003:00000158       __imp__$ClassEditarEventoDialog 00421158
 0003:00000170       __imp__$ClassEditarEventoDialog_9SymAction 00421170
 0003:00000178       __imp__$ClassEditarEventoDialog_9SymFocus 00421178
 0003:00000174       __imp__$ClassEditarEventoDialog_9SymItem 00421174
 0003:0000016C       __imp__$ClassEditarEventoDialog_9SymWindow 0042116C
 0003:00000184       __imp__$ClassEditarFluxoDialog 00421184
 0003:000001A4       __imp__$ClassEditarFluxoDialog_9SymAction 004211A4
 0003:000001A8       __imp__$ClassEditarFluxoDialog_9SymFocus 004211A8
 0003:000001A0       __imp__$ClassEditarFluxoDialog_9SymWindow 004211A0
 0003:00000180       __imp__$ClassEditarProcessoDialog 00421180
 0003:000001C0       __imp__$ClassEditarProcessoDialog_9SymAction 004211C0
 0003:000001C4       __imp__$ClassEditarProcessoDialog_9SymFocus 004211C4
 0003:000001BC       __imp__$ClassEditarProcessoDialog_9SymWindow 004211BC
 0003:000000CC       __imp__$ClassEditarProjetoDialog 004210CC
 0003:000000C0       __imp__$ClassEditarProjetoDialog_9SymAction 004210C0
 0003:000000BC       __imp__$ClassEditarProjetoDialog_9SymWindow 004210BC
 0003:000000EC       __imp__$ClassEntidadesDialog 004210EC
 0003:00000150       __imp__$ClassEntidadesDialog_9SymAction 00421150
 0003:00000154       __imp__$ClassEntidadesDialog_9SymMouse 00421154
 0003:0000014C       __imp__$ClassEntidadesDialog_9SymWindow 0042114C
 0003:000000F0       __imp__$ClassEventosDialog 004210F0
 0003:00000164       __imp__$ClassEventosDialog_9SymAction 00421164
 0003:00000160       __imp__$ClassEventosDialog_9SymItem 00421160
 0003:0000015C       __imp__$ClassEventosDialog_9SymMouse 0042115C
 0003:00000168       __imp__$ClassEventosDialog_9SymWindow 00421168
 0003:000000DC       __imp__$ClassPowerCase_9SymAction 004210DC
 0003:000000D8       __imp__$ClassPowerCase_9SymWindow 004210D8
 0003:000000E4       __imp__$ClassQuitDialog    004210E4
 0003:00000100       __imp__$ClassQuitDialog_9SymAction 00421100
 0003:00000104       __imp__$ClassQuitDialog_9SymWindow 00421104
 0003:0000017C       __imp__$ClassSelecionarDepositoDialog 0042117C
 0003:000000A0       __imp__$ClassSelecionarDepositoDialog_9SymAction 004210A0
 0003:000000A4       __imp__$ClassSelecionarDepositoDialog_9SymMouse 004210A4
 0003:0000009C       __imp__$ClassSelecionarDepositoDialog_9SymWindow 0042109C
 0003:00000188       __imp__$ClassSelecionarEntidadeDialog 00421188
 0003:000000B4       __imp__$ClassSelecionarEntidadeDialog_9SymAction 004210B4
 0003:000000B8       __imp__$ClassSelecionarEntidadeDialog_9SymMouse 004210B8
 0003:000000B0       __imp__$ClassSelecionarEntidadeDialog_9SymWindow 004210B0
 0003:000000E0       __imp__$ClassSplashWindow  004210E0
 0003:000000A8       __imp__$ClassSplashWindow_9SymMouse 004210A8
 0003:00000078       __imp__$ClassYourdon_Deposito 00421078
 0003:00000114       __imp__$ClassYourdon_Diagrama 00421114
 0003:00000074       __imp__$ClassYourdon_ElementoEssencial 00421074
 0003:0000013C       __imp__$ClassYourdon_Entidade 0042113C
 0003:000001B8       __imp__$ClassYourdon_Evento 004211B8
 0003:000001AC       __imp__$ClassYourdon_Fluxo 004211AC
 0003:0000011C       __imp__$ClassYourdon_ListaDepositos 0042111C
 0003:0000007C       __imp__$ClassYourdon_ListaElementos 0042107C
 0003:00000128       __imp__$ClassYourdon_ListaEntidades 00421128
 0003:00000118       __imp__$ClassYourdon_ListaEventos 00421118
 0003:00000120       __imp__$ClassYourdon_ListaFluxos 00421120
 0003:00000124       __imp__$ClassYourdon_ListaProcessos 00421124
 0003:00000140       __imp__$ClassYourdon_Processo 00421140
 0003:000000D4       __imp__$ClassYourdon_Projeto 004210D4
 0003:00000084       __imp__$ClassYourdon_Simbolo 00421084
 0003:0000012C       __imp__$ClassYourdon_SimboloDeposito 0042112C
 0003:00000138       __imp__$ClassYourdon_SimboloEntidade 00421138
 0003:00000130       __imp__$ClassYourdon_SimboloFluxo 00421130
 0003:00000088       __imp__$ClassYourdon_SimboloMovel 00421088
 0003:00000134       __imp__$ClassYourdon_SimboloProcesso 00421134
 0001:0000546C       __imp__$Classjava_awt_BorderLayout 0040646C
 0001:00005814       __imp__$Classjava_awt_Button 00406814
 0001:00005328       __imp__$Classjava_awt_Canvas 00406328
 0001:000053BC       __imp__$Classjava_awt_Checkbox 004063BC
 0001:0000530C       __imp__$Classjava_awt_CheckboxGroup 0040630C
 0001:000053B4       __imp__$Classjava_awt_Choice 004063B4
 0001:0000582C       __imp__$Classjava_awt_Color 0040682C
 0001:000053EC       __imp__$Classjava_awt_Cursor 004063EC
 0001:00005524       __imp__$Classjava_awt_Dialog 00406524
 0001:000053F8       __imp__$Classjava_awt_Dimension 004063F8
 0001:000054A8       __imp__$Classjava_awt_FileDialog 004064A8
 0001:0000547C       __imp__$Classjava_awt_Font 0040647C
 0001:00005414       __imp__$Classjava_awt_Frame 00406414
 0001:00005824       __imp__$Classjava_awt_Label 00406824
 0001:000054F0       __imp__$Classjava_awt_List 004064F0
 0001:00005490       __imp__$Classjava_awt_Menu 00406490
 0001:00005498       __imp__$Classjava_awt_MenuBar 00406498
 0001:0000552C       __imp__$Classjava_awt_MenuContainer 0040652C
 0001:00005488       __imp__$Classjava_awt_MenuItem 00406488
 0001:00005480       __imp__$Classjava_awt_MenuShortcut 00406480
 0001:00005474       __imp__$Classjava_awt_Panel 00406474
 0001:000053E0       __imp__$Classjava_awt_Point 004063E0
 0001:000053D8       __imp__$Classjava_awt_Rectangle 004063D8
 0001:00005400       __imp__$Classjava_awt_ScrollPane 00406400
 0001:000054B4       __imp__$Classjava_awt_TextArea 004064B4
 0001:0000581C       __imp__$Classjava_awt_TextField 0040681C
 0001:000054B8       __imp__$Classjava_awt_Window 004064B8
 0001:00005500       __imp__$Classjava_awt_event_ActionListener 00406500
 0001:000054F8       __imp__$Classjava_awt_event_FocusAdapter 004064F8
 0001:000054FC       __imp__$Classjava_awt_event_FocusListener 004064FC
 0001:000053AC       __imp__$Classjava_awt_event_ItemListener 004063AC
 0001:000054D0       __imp__$Classjava_awt_event_MouseAdapter 004064D0
 0001:000054D4       __imp__$Classjava_awt_event_MouseListener 004064D4
 0001:00005314       __imp__$Classjava_awt_event_MouseMotionAdapter 00406314
 0001:00005318       __imp__$Classjava_awt_event_MouseMotionListener 00406318
 0001:00005508       __imp__$Classjava_awt_event_WindowAdapter 00406508
 0001:00005408       __imp__$Classjava_awt_event_WindowEvent 00406408
 0001:0000550C       __imp__$Classjava_awt_event_WindowListener 0040650C
 0001:00005528       __imp__$Classjava_awt_image_ImageObserver 00406528
 0001:0000583C       __imp__$Classjava_beans_PropertyVetoException 0040683C
 0001:000058D4       __imp__$Classjava_io_FileInputStream 004068D4
 0001:000058C0       __imp__$Classjava_io_FileOutputStream 004068C0
 0001:000058F8       __imp__$Classjava_io_IOException 004068F8
 0001:000058CC       __imp__$Classjava_io_ObjectInputStream 004068CC
 0001:000058BC       __imp__$Classjava_io_ObjectOutputStream 004068BC
 0001:00005944       __imp__$Classjava_io_Serializable 00406944
 0001:00005924       __imp__$Classjava_lang_ArrayIndexOutOfBoundsException 00406924
 0001:000058FC       __imp__$Classjava_lang_ClassCastException 004068FC
 0001:000058A8       __imp__$Classjava_lang_ClassNotFoundException 004068A8
 0001:00005878       __imp__$Classjava_lang_Exception 00406878
 0001:00005864       __imp__$Classjava_lang_Integer 00406864
 0001:00005868       __imp__$Classjava_lang_NumberFormatException 00406868
 0001:000058F0       __imp__$Classjava_lang_Object 004068F0
 0001:00005884       __imp__$Classjava_lang_String 00406884
 0001:00005920       __imp__$Classjava_lang_StringBuffer 00406920
 0001:000058E8       __imp__$Classjava_net_MalformedURLException 004068E8
 0001:000058E4       __imp__$Classjava_text_SimpleDateFormat 004068E4
 0001:000058A0       __imp__$Classjava_util_Date 004068A0
 0001:000058F4       __imp__$Classjava_util_EventListener 004068F4
 0001:00005888       __imp__$Classjava_util_Vector 00406888
 0001:00005A4C       __imp__$Classsymantec_itools_awt_ImageButton 00406A4C
 0001:00005A30       __imp__$Classsymantec_itools_awt_MultiList 00406A30
 0001:00005A28       __imp__$Classsymantec_itools_awt_RadioButtonGroupPanel 00406A28
 0001:00005A44       __imp__$Classsymantec_itools_awt_StatusBar 00406A44
 0001:00005A3C       __imp__$Classsymantec_itools_awt_util_ToolBarPanel 00406A3C
 0001:00005A58       __imp__$Classsymantec_itools_multimedia_ImageViewer 00406A58
 0003:000001B0       __imp__$Yourdon_Simbolo_BORDA 004211B0
 0003:000001B4       __imp__$Yourdon_Simbolo_SELECIONADO 004211B4
 0003:00000080       __imp__$Yourdon_Simbolo_TEXTO 00421080
 0001:000053D4       __imp__$java_awt_Color_black 004063D4
 0001:000053CC       __imp__$java_awt_Color_blue 004063CC
 0001:000053D0       __imp__$java_awt_Color_gray 004063D0
 0001:000053C8       __imp__$java_awt_Color_lightGray 004063C8
 0001:000053C4       __imp__$java_awt_Color_white 004063C4
 0001:000053C0       __imp__$java_awt_Color_yellow 004063C0
 0001:000059AC       __imp__CloseHandle@4       004069AC
 0001:000059FC       __imp__CreateSemaphoreA@16 004069FC
 0001:000059A4       __imp__CreateThread@24     004069A4
 0001:000059B8       __imp__DeleteCriticalSection@4 004069B8
 0001:000059E4       __imp__EnterCriticalSection@4 004069E4
 0001:0000598C       __imp__FileTimeToDosDateTime@12 0040698C
 0001:00005984       __imp__FindClose@4         00406984
 0001:00005988       __imp__FindFirstFileA@8    00406988
 0001:00005990       __imp__FindNextFileA@8     00406990
 0001:00005980       __imp__GetACP@0            00406980
 0001:00005978       __imp__GetCPInfo@8         00406978
 0001:000059C8       __imp__GetCommandLineA@0   004069C8
 0001:000059A0       __imp__GetEnvironmentVariableA@12 004069A0
 0001:00005A08       __imp__GetLastError@0      00406A08
 0001:000059B4       __imp__GetModuleFileNameA@12 004069B4
 0001:000059C4       __imp__GetModuleHandleA@4  004069C4
 0001:0000597C       __imp__GetOEMCP@0          0040697C
 0001:000059D8       __imp__GetStdHandle@4      004069D8
 0001:00005A18       __imp__GetStringTypeA@20   00406A18
 0001:000059C0       __imp__GetTickCount@0      004069C0
 0001:000059E0       __imp__InitializeCriticalSection@4 004069E0
 0001:00005A14       __imp__LCMapStringA@24     00406A14
 0001:000059E8       __imp__LeaveCriticalSection@4 004069E8
 0001:00005A20       __imp__MessageBoxA@16      00406A20
 0001:00005A10       __imp__MultiByteToWideChar@24 00406A10
 0001:00005A00       __imp__ReleaseSemaphore@12 00406A00
 0001:000059A8       __imp__SetThreadPriority@8 004069A8
 0001:000059BC       __imp__UnhandledExceptionFilter@4 004069BC
 0001:000059CC       __imp__VirtualAlloc@16     004069CC
 0001:000059D0       __imp__VirtualFree@12      004069D0
 0001:000059F8       __imp__WaitForSingleObject@8 004069F8
 0001:00005A0C       __imp__WideCharToMultiByte@32 00406A0C
 0001:000059D4       __imp__WriteConsoleA@20    004069D4
 0001:00005940       __imp___vtbl_$Classjava_lang_Class 00406940
 0002:00017558       __init_rtl_critsection     0041E558
 0002:00014D7C       __isctype                  0041BD7C
 0002:00018D60       __ismbblead                0041FD60
 0002:0001987C  Imp  __j_anewarray@8      (SNJRT11.DLL.__j_anewarray@8)
 0002:00019942  Imp  __j_arraybounds@0    (SNJRT11.DLL.__j_arraybounds@0)
 0002:00019990  Imp  __j_checkcast@8      (SNJRT11.DLL.__j_checkcast@8)
 0002:00019948  Imp  __j_classinit        (SNJRT11.DLL._j_classinit)
 0002:000198A0  Imp  __j_intfvtable@8     (SNJRT11.DLL.__j_intfvtable@8)
 0002:000198C4  Imp  __j_local_unwind2    (SNJRT11.DLL._j_local_unwind2)
 0002:0001997E  Imp  __j_new@4            (SNJRT11.DLL.__j_new@4)
 0002:0001986A  Imp  __j_newarray@8       (SNJRT11.DLL.__j_newarray@8)
 0002:00019954  Imp  __j_stringfix        (SNJRT11.DLL._j_stringfix)
 0002:0001998A  Imp  __java_framehandler  (SNJRT11.DLL._java_framehandler)
 0002:00000010       __java_main                00407010
 0003:00019F28       __jrtused                  0043AF28
 0002:00018830       __local_except_handler     0041F830
 0002:00018878       __local_unwind             0041F878
 0003:0001A9B4       __mbctype                  0043B9B4
 0002:00018BD4       __mbschr                   0041FBD4
 0002:00015E94       __opti_stosd               0041CE94
 0003:0001A5FE       __osmode                   0043B5FE
 0003:0001A5F6       __osver                    0043B5F6
 0003:0001A0A4       __pctype                   0043B0A4
 0003:0001A5EE       __pgmptr                   0043B5EE
 0003:0001A0A8       __pwctype                  0043B0A8
 0002:000174A2       __semerr                   0041E4A2
 0002:000184D0       __setargv                  0041F4D0
 0002:00017C44       __setenvp                  0041EC44
 0002:00018E90       __setmbcp                  0041FE90
 0002:00015C9E       __status87                 0041CC9E
 0003:0001BD74       __szSemPrefix              0043CD74
 0003:0001A5EA       __tab_size                 0043B5EA
 0002:000164E3       __thderr                   0041D4E3
 0003:0001A647       __thread1                  0043B647
 0002:000164B0       __thread_init              0041D4B0
 0002:00018A75       __vedbtr_CreateServiceThread 0041FA75
 0003:00009CB0       __vtbl_$ClassAboutDialog   0042ACB0
 0003:0000A340       __vtbl_$ClassAboutDialog_9SymAction 0042B340
 0003:0000A170       __vtbl_$ClassAboutDialog_9SymWindow 0042B170
 0003:000064C0       __vtbl_$ClassConfirmarSalvarDialog 004274C0
 0003:00006BA0       __vtbl_$ClassConfirmarSalvarDialog_9SymAction 00427BA0
 0003:000069B0       __vtbl_$ClassConfirmarSalvarDialog_9SymWindow 004279B0
 0003:0000F760       __vtbl_$ClassContextoDialog 00430760
 0003:0000FE70       __vtbl_$ClassContextoDialog_9SymAction 00430E70
 0003:0000FC90       __vtbl_$ClassContextoDialog_9SymWindow 00430C90
 0003:0000C060       __vtbl_$ClassDFDDialog     0042D060
 0003:0000C750       __vtbl_$ClassDFDDialog_9SymAction 0042D750
 0003:0000C580       __vtbl_$ClassDFDDialog_9SymWindow 0042D580
 0003:00014B80       __vtbl_$ClassDiagramaCanvas 00435B80
 0003:00014FF0       __vtbl_$ClassDiagramaCanvas_9DiagramaCanvasMouseListener 00435FF0
 0003:000151E0       __vtbl_$ClassDiagramaCanvas_9DiagramaCanvasMouseMotionListener 004361E0
 0003:00001210       __vtbl_$ClassEditarDepositoDialog 00422210
 0003:00001930       __vtbl_$ClassEditarDepositoDialog_9SymAction 00422930
 0003:00001B50       __vtbl_$ClassEditarDepositoDialog_9SymFocus 00422B50
 0003:00001740       __vtbl_$ClassEditarDepositoDialog_9SymWindow 00422740
 0003:00015AA0       __vtbl_$ClassEditarEntidadeDialog 00436AA0
 0003:000161C0       __vtbl_$ClassEditarEntidadeDialog_9SymAction 004371C0
 0003:000163E0       __vtbl_$ClassEditarEntidadeDialog_9SymFocus 004373E0
 0003:00015FD0       __vtbl_$ClassEditarEntidadeDialog_9SymWindow 00436FD0
 0003:00013810       __vtbl_$ClassEditarEventoDialog 00434810
 0003:00013F00       __vtbl_$ClassEditarEventoDialog_9SymAction 00434F00
 0003:000142F0       __vtbl_$ClassEditarEventoDialog_9SymFocus 004352F0
 0003:000140E0       __vtbl_$ClassEditarEventoDialog_9SymItem 004350E0
 0003:00013D10       __vtbl_$ClassEditarEventoDialog_9SymWindow 00434D10
 0003:00016E30       __vtbl_$ClassEditarFluxoDialog 00437E30
 0003:00017550       __vtbl_$ClassEditarFluxoDialog_9SymAction 00438550
 0003:00017760       __vtbl_$ClassEditarFluxoDialog_9SymFocus 00438760
 0003:00017360       __vtbl_$ClassEditarFluxoDialog_9SymWindow 00438360
 0003:00018B30       __vtbl_$ClassEditarProcessoDialog 00439B30
 0003:00019260       __vtbl_$ClassEditarProcessoDialog_9SymAction 0043A260
 0003:00019480       __vtbl_$ClassEditarProcessoDialog_9SymFocus 0043A480
 0003:00019070       __vtbl_$ClassEditarProcessoDialog_9SymWindow 0043A070
 0003:000057B0       __vtbl_$ClassEditarProjetoDialog 004267B0
 0003:00005E80       __vtbl_$ClassEditarProjetoDialog_9SymAction 00426E80
 0003:00005C90       __vtbl_$ClassEditarProjetoDialog_9SymWindow 00426C90
 0003:000108A0       __vtbl_$ClassEntidadesDialog 004318A0
 0003:00010FC0       __vtbl_$ClassEntidadesDialog_9SymAction 00431FC0
 0003:000111A0       __vtbl_$ClassEntidadesDialog_9SymMouse 004321A0
 0003:00010DE0       __vtbl_$ClassEntidadesDialog_9SymWindow 00431DE0
 0003:00011FF0       __vtbl_$ClassEventosDialog 00432FF0
 0003:00012710       __vtbl_$ClassEventosDialog_9SymAction 00433710
 0003:000128E0       __vtbl_$ClassEventosDialog_9SymItem 004338E0
 0003:00012AB0       __vtbl_$ClassEventosDialog_9SymMouse 00433AB0
 0003:00012530       __vtbl_$ClassEventosDialog_9SymWindow 00433530
 0003:00008F60       __vtbl_$ClassPowerCase     00429F60
 0003:000096C0       __vtbl_$ClassPowerCase_9SymAction 0042A6C0
 0003:000094F0       __vtbl_$ClassPowerCase_9SymWindow 0042A4F0
 0003:0000A810       __vtbl_$ClassQuitDialog    0042B810
 0003:0000AEA0       __vtbl_$ClassQuitDialog_9SymAction 0042BEA0
 0003:0000ACD0       __vtbl_$ClassQuitDialog_9SymWindow 0042BCD0
 0003:00002660       __vtbl_$ClassSelecionarDepositoDialog 00423660
 0003:00002D70       __vtbl_$ClassSelecionarDepositoDialog_9SymAction 00423D70
 0003:00002F70       __vtbl_$ClassSelecionarDepositoDialog_9SymMouse 00423F70
 0003:00002B70       __vtbl_$ClassSelecionarDepositoDialog_9SymWindow 00423B70
 0003:00004260       __vtbl_$ClassSelecionarEntidadeDialog 00425260
 0003:00004970       __vtbl_$ClassSelecionarEntidadeDialog_9SymAction 00425970
 0003:00004B70       __vtbl_$ClassSelecionarEntidadeDialog_9SymMouse 00425B70
 0003:00004770       __vtbl_$ClassSelecionarEntidadeDialog_9SymWindow 00425770
 0003:000032A0       __vtbl_$ClassSplashWindow  004242A0
 0003:00003730       __vtbl_$ClassSplashWindow_9SymMouse 00424730
 0003:000002B0       __vtbl_$ClassYourdon_Deposito 004212B0
 0003:0000D5C0       __vtbl_$ClassYourdon_Diagrama 0042E5C0
 0003:0000D7D0       __vtbl_$ClassYourdon_ElementoEssencial 0042E7D0
 0003:0000DAC0       __vtbl_$ClassYourdon_Entidade 0042EAC0
 0003:00019780       __vtbl_$ClassYourdon_Evento 0043A780
 0003:00017B10       __vtbl_$ClassYourdon_Fluxo 00438B10
 0003:000005F0       __vtbl_$ClassYourdon_ListaDepositos 004215F0
 0003:0000E560       __vtbl_$ClassYourdon_ListaElementos 0042F560
 0003:0000E3F0       __vtbl_$ClassYourdon_ListaEntidades 0042F3F0
 0003:00018100       __vtbl_$ClassYourdon_ListaEventos 00439100
 0003:00017920       __vtbl_$ClassYourdon_ListaFluxos 00438920
 0003:0000E770       __vtbl_$ClassYourdon_ListaProcessos 0042F770
 0003:00019BA0       __vtbl_$ClassYourdon_Processo 0043ABA0
 0003:0000CCA0       __vtbl_$ClassYourdon_Projeto 0042DCA0
 0003:0000E170       __vtbl_$ClassYourdon_Simbolo 0042F170
 0003:000007B0       __vtbl_$ClassYourdon_SimboloDeposito 004217B0
 0003:0000D980       __vtbl_$ClassYourdon_SimboloEntidade 0042E980
 0003:00017DF0       __vtbl_$ClassYourdon_SimboloFluxo 00438DF0
 0003:0000DC40       __vtbl_$ClassYourdon_SimboloMovel 0042EC40
 0003:00019ED0       __vtbl_$ClassYourdon_SimboloProcesso 0043AED0
 0002:0001999C  Imp  __vtbl_$Classjava_lang_Class (SNJRT11.DLL._vtbl_$Classjava_lang_Class)
 0003:0001A639       __wargv                    0043B639
 0003:0001A924       __wenviron                 0043B924
 0003:0001A62D       __wenvptr                  0043B62D
 0002:00017CB8       __win32_faterr             0041ECB8
 0002:00017C6C       __win32_stderrmsg          0041EC6C
 0003:0001A5FB       __winmajor                 0043B5FB
 0003:0001A5FA       __winminor                 0043B5FA
 0003:0001A5FA       __winver                   0043B5FA
 0003:0001A5F2       __wpgmptr                  0043B5F2
 0003:00000020       __xc_a                     00421020
 0003:00000030       __xc_z                     00421030
 0003:00000000       __xi_a                     00421000
 0003:00000010       __xi_z                     00421010
 0003:00000040       __xp_a                     00421040
 0003:00000050       __xp_z                     00421050
 0003:00000060       __xt_a                     00421060
 0003:00000070       __xt_z                     00421070
 0002:0001736C       _calloc                    0041E36C
 0003:0001AE00       _edata                     0043BE00
 0003:0001BD80       _end                       0043CD80
 0003:0001A657       _errno                     0043B657
 0002:0001801C       _exit                      0041F01C
 0003:0001B5D0       _fdiv_chk_flag             0043C5D0
 0002:000171E2       _fdiv_m16i                 0041E1E2
 0002:00017146       _fdiv_m32                  0041E146
 0002:00017216       _fdiv_m32i                 0041E216
 0002:00017194       _fdiv_m64                  0041E194
 0002:00016C28       _fdiv_r                    0041DC28
 0002:000172E6       _fdivr_m16i                0041E2E6
 0002:0001724A       _fdivr_m32                 0041E24A
 0002:0001731A       _fdivr_m32i                0041E31A
 0002:00017298       _fdivr_m64                 0041E298
 0002:00015D78       _fegetenv                  0041CD78
 0002:00015DCC       _fesetenv                  0041CDCC
 0002:00018D08       _findfirst                 0041FD08
 0002:00018D4C       _findnext                  0041FD4C
 0002:00016044       _free                      0041D044
 0002:000175E0       _itoa                      0041E5E0
 0002:00015E30       _ldexp                     0041CE30
 0002:000180D3       _main                      0041F0D3
 0002:00017D78       _mainCRTStartup            0041ED78
 0002:00016294       _malloc                    0041D294
 0002:00016300       _mbstowcs                  0041D300
 0002:00015308       _mbtowc                    0041C308
 0002:000150F0       _memcpy                    0041C0F0
 0002:00015E40       _memicmp                   0041CE40
 0002:000150F0       _memmove                   0041C0F0
 0002:00015EC8       _memset                    0041CEC8
 0002:00018B40       _realloc                   0041FB40
 0002:00017CD4       _sbrk                      0041ECD4
 0002:000175A0       _strcat                    0041E5A0
 0002:00016A88       _strchr                    0041DA88
 0002:000169C4       _strcpy                    0041D9C4
 0002:00018B9C       _strdup                    0041FB9C
 0002:00016A28       _strlen                    0041DA28
 0002:0001470C       _strtod                    0041B70C
 0002:0001982E  Imp  _sysAtexit           (SNJRT11.DLL.sysAtexit)
 0002:00019834  Imp  _sysExit             (SNJRT11.DLL.sysExit)
 0002:00014E20       _tolower                   0041BE20
 0002:000162EC       _wcslen                    0041D2EC
 0002:00015438       _wcstod                    0041C438
 0002:00016090       _wcstombs                  0041D090
 0002:000157E9       dget_dtype                 0041C7E9
 0002:00015755       dget_dtype_pair            0041C755
 0002:00015574       dleft_justify              0041C574
 0002:00015655       dnorm                      0041C655
 0002:00015588       dround                     0041C588
 0002:00015550       dunnorm                    0041C550
 0002:0001570E       exception                  0041C70E
 0002:00015B9F       fget_dtype                 0041CB9F
 0002:00015A3A       fleft_justify              0041CA3A
 0002:000159C3       fnorm                      0041C9C3
 0002:00015A4A       fright_justify             0041CA4A
 0002:00015A8E       fround                     0041CA8E
 0002:00015998       funnorm                    0041C998
 0003:0001A484       roundto0                   0043B484

  Address         Publics by Value              Rva+Base

 0000:00000000  Abs  __except_list              00000000
 0001:0000530C       __imp__$Classjava_awt_CheckboxGroup 0040630C
 0001:00005314       __imp__$Classjava_awt_event_MouseMotionAdapter 00406314
 0001:00005318       __imp__$Classjava_awt_event_MouseMotionListener 00406318
 0001:00005328       __imp__$Classjava_awt_Canvas 00406328
 0001:000053AC       __imp__$Classjava_awt_event_ItemListener 004063AC
 0001:000053B4       __imp__$Classjava_awt_Choice 004063B4
 0001:000053BC       __imp__$Classjava_awt_Checkbox 004063BC
 0001:000053C0       __imp__$java_awt_Color_yellow 004063C0
 0001:000053C4       __imp__$java_awt_Color_white 004063C4
 0001:000053C8       __imp__$java_awt_Color_lightGray 004063C8
 0001:000053CC       __imp__$java_awt_Color_blue 004063CC
 0001:000053D0       __imp__$java_awt_Color_gray 004063D0
 0001:000053D4       __imp__$java_awt_Color_black 004063D4
 0001:000053D8       __imp__$Classjava_awt_Rectangle 004063D8
 0001:000053E0       __imp__$Classjava_awt_Point 004063E0
 0001:000053EC       __imp__$Classjava_awt_Cursor 004063EC
 0001:000053F8       __imp__$Classjava_awt_Dimension 004063F8
 0001:00005400       __imp__$Classjava_awt_ScrollPane 00406400
 0001:00005408       __imp__$Classjava_awt_event_WindowEvent 00406408
 0001:00005414       __imp__$Classjava_awt_Frame 00406414
 0001:0000546C       __imp__$Classjava_awt_BorderLayout 0040646C
 0001:00005474       __imp__$Classjava_awt_Panel 00406474
 0001:0000547C       __imp__$Classjava_awt_Font 0040647C
 0001:00005480       __imp__$Classjava_awt_MenuShortcut 00406480
 0001:00005488       __imp__$Classjava_awt_MenuItem 00406488
 0001:00005490       __imp__$Classjava_awt_Menu 00406490
 0001:00005498       __imp__$Classjava_awt_MenuBar 00406498
 0001:000054A8       __imp__$Classjava_awt_FileDialog 004064A8
 0001:000054B4       __imp__$Classjava_awt_TextArea 004064B4
 0001:000054B8       __imp__$Classjava_awt_Window 004064B8
 0001:000054D0       __imp__$Classjava_awt_event_MouseAdapter 004064D0
 0001:000054D4       __imp__$Classjava_awt_event_MouseListener 004064D4
 0001:000054F0       __imp__$Classjava_awt_List 004064F0
 0001:000054F8       __imp__$Classjava_awt_event_FocusAdapter 004064F8
 0001:000054FC       __imp__$Classjava_awt_event_FocusListener 004064FC
 0001:00005500       __imp__$Classjava_awt_event_ActionListener 00406500
 0001:00005508       __imp__$Classjava_awt_event_WindowAdapter 00406508
 0001:0000550C       __imp__$Classjava_awt_event_WindowListener 0040650C
 0001:00005524       __imp__$Classjava_awt_Dialog 00406524
 0001:00005528       __imp__$Classjava_awt_image_ImageObserver 00406528
 0001:0000552C       __imp__$Classjava_awt_MenuContainer 0040652C
 0001:00005814       __imp__$Classjava_awt_Button 00406814
 0001:0000581C       __imp__$Classjava_awt_TextField 0040681C
 0001:00005824       __imp__$Classjava_awt_Label 00406824
 0001:0000582C       __imp__$Classjava_awt_Color 0040682C
 0001:0000583C       __imp__$Classjava_beans_PropertyVetoException 0040683C
 0001:00005864       __imp__$Classjava_lang_Integer 00406864
 0001:00005868       __imp__$Classjava_lang_NumberFormatException 00406868
 0001:00005878       __imp__$Classjava_lang_Exception 00406878
 0001:00005884       __imp__$Classjava_lang_String 00406884
 0001:00005888       __imp__$Classjava_util_Vector 00406888
 0001:000058A0       __imp__$Classjava_util_Date 004068A0
 0001:000058A8       __imp__$Classjava_lang_ClassNotFoundException 004068A8
 0001:000058BC       __imp__$Classjava_io_ObjectOutputStream 004068BC
 0001:000058C0       __imp__$Classjava_io_FileOutputStream 004068C0
 0001:000058CC       __imp__$Classjava_io_ObjectInputStream 004068CC
 0001:000058D4       __imp__$Classjava_io_FileInputStream 004068D4
 0001:000058E4       __imp__$Classjava_text_SimpleDateFormat 004068E4
 0001:000058E8       __imp__$Classjava_net_MalformedURLException 004068E8
 0001:000058F0       __imp__$Classjava_lang_Object 004068F0
 0001:000058F4       __imp__$Classjava_util_EventListener 004068F4
 0001:000058F8       __imp__$Classjava_io_IOException 004068F8
 0001:000058FC       __imp__$Classjava_lang_ClassCastException 004068FC
 0001:00005920       __imp__$Classjava_lang_StringBuffer 00406920
 0001:00005924       __imp__$Classjava_lang_ArrayIndexOutOfBoundsException 00406924
 0001:00005940       __imp___vtbl_$Classjava_lang_Class 00406940
 0001:00005944       __imp__$Classjava_io_Serializable 00406944
 0001:00005978       __imp__GetCPInfo@8         00406978
 0001:0000597C       __imp__GetOEMCP@0          0040697C
 0001:00005980       __imp__GetACP@0            00406980
 0001:00005984       __imp__FindClose@4         00406984
 0001:00005988       __imp__FindFirstFileA@8    00406988
 0001:0000598C       __imp__FileTimeToDosDateTime@12 0040698C
 0001:00005990       __imp__FindNextFileA@8     00406990
 0001:000059A0       __imp__GetEnvironmentVariableA@12 004069A0
 0001:000059A4       __imp__CreateThread@24     004069A4
 0001:000059A8       __imp__SetThreadPriority@8 004069A8
 0001:000059AC       __imp__CloseHandle@4       004069AC
 0001:000059B4       __imp__GetModuleFileNameA@12 004069B4
 0001:000059B8       __imp__DeleteCriticalSection@4 004069B8
 0001:000059BC       __imp__UnhandledExceptionFilter@4 004069BC
 0001:000059C0       __imp__GetTickCount@0      004069C0
 0001:000059C4       __imp__GetModuleHandleA@4  004069C4
 0001:000059C8       __imp__GetCommandLineA@0   004069C8
 0001:000059CC       __imp__VirtualAlloc@16     004069CC
 0001:000059D0       __imp__VirtualFree@12      004069D0
 0001:000059D4       __imp__WriteConsoleA@20    004069D4
 0001:000059D8       __imp__GetStdHandle@4      004069D8
 0001:000059E0       __imp__InitializeCriticalSection@4 004069E0
 0001:000059E4       __imp__EnterCriticalSection@4 004069E4
 0001:000059E8       __imp__LeaveCriticalSection@4 004069E8
 0001:000059F8       __imp__WaitForSingleObject@8 004069F8
 0001:000059FC       __imp__CreateSemaphoreA@16 004069FC
 0001:00005A00       __imp__ReleaseSemaphore@12 00406A00
 0001:00005A08       __imp__GetLastError@0      00406A08
 0001:00005A0C       __imp__WideCharToMultiByte@32 00406A0C
 0001:00005A10       __imp__MultiByteToWideChar@24 00406A10
 0001:00005A14       __imp__LCMapStringA@24     00406A14
 0001:00005A18       __imp__GetStringTypeA@20   00406A18
 0001:00005A20       __imp__MessageBoxA@16      00406A20
 0001:00005A28       __imp__$Classsymantec_itools_awt_RadioButtonGroupPanel 00406A28
 0001:00005A30       __imp__$Classsymantec_itools_awt_MultiList 00406A30
 0001:00005A3C       __imp__$Classsymantec_itools_awt_util_ToolBarPanel 00406A3C
 0001:00005A44       __imp__$Classsymantec_itools_awt_StatusBar 00406A44
 0001:00005A4C       __imp__$Classsymantec_itools_awt_ImageButton 00406A4C
 0001:00005A58       __imp__$Classsymantec_itools_multimedia_ImageViewer 00406A58
 0002:00000010       __java_main                00407010
 0002:00000018       _$Yourdon_Deposito__4init_5__Ljava_lang_String_2 00407018
 0002:00000038       _$Yourdon_ListaDepositos_getPrimeiro__ 00407038
 0002:00000058       _$Yourdon_ListaDepositos_getProximo__ 00407058
 0002:000000D4       _$Yourdon_ListaDepositos_getDeposito__I 004070D4
 0002:00000154       _$Yourdon_ListaDepositos_remover__I 00407154
 0002:00000178       _$Yourdon_ListaDepositos__4init_5__ 00407178
 0002:00000194       _$Yourdon_ListaDepositos_adicionar__Ljava_lang_String_2 00407194
 0002:000001D4       _$Yourdon_SimboloDeposito__4init_5__LYourdon_Deposito_2Ljava_awt_Point_2Z 004071D4
 0002:000001FC       _$Yourdon_SimboloDeposito_desenhar__Ljava_awt_Graphics_2 004071FC
 0002:000003A4       _$EditarDepositoDialog_abrir__ 004073A4
 0002:000003C4       _$EditarDepositoDialog_fechar__ 004073C4
 0002:000003E0       _$EditarDepositoDialog_ok__ 004073E0
 0002:00000420       _$EditarDepositoDialog__4init_5__Ljava_awt_Frame_2LYourdon_Deposito_2 00407420
 0002:000004C8       _$EditarDepositoDialog__4init_5__Ljava_awt_Frame_2Z 004074C8
 0002:00000840       _$EditarDepositoDialog_addNotify__ 00407840
 0002:000009BC       _$EditarDepositoDialog__4init_5__Ljava_awt_Frame_2Ljava_lang_String_2Z 004079BC
 0002:000009F4       _$EditarDepositoDialog_setVisible__Z 004079F4
 0002:00000A90       _$EditarDepositoDialog_Dialog1_1WindowClosing__Ljava_awt_event_WindowEvent_2 00407A90
 0002:00000AB4       _$EditarDepositoDialog_buttonCancelar_1ActionPerformed__Ljava_awt_event_ActionEvent_2 00407AB4
 0002:00000AD0       _$EditarDepositoDialog_buttonOk_1ActionPerformed__Ljava_awt_event_ActionEvent_2 00407AD0
 0002:00000B08       _$EditarDepositoDialog_EditarDepositoDialog_1WindowOpened__Ljava_awt_event_WindowEvent_2 00407B08
 0002:00000B24       _$EditarDepositoDialog_buttonAjuda_1ActionPerformed__Ljava_awt_event_ActionEvent_2 00407B24
 0002:00000BE4       _$EditarDepositoDialog_textFieldDescricao_1FocusGained__Ljava_awt_event_FocusEvent_2 00407BE4
 0002:00000C08       _$EditarDepositoDialog_textFieldDescricao_1FocusLost__Ljava_awt_event_FocusEvent_2 00407C08
 0002:00000C34       _$EditarDepositoDialog_00024SymWindow_windowOpened__Ljava_awt_event_WindowEvent_2 00407C34
 0002:00000C78       _$EditarDepositoDialog_00024SymWindow_windowClosing__Ljava_awt_event_WindowEvent_2 00407C78
 0002:00000CBC       _$EditarDepositoDialog_00024SymWindow__4init_5__LEditarDepositoDialog_2 00407CBC
 0002:00000CE4       _$EditarDepositoDialog_00024SymAction_actionPerformed__Ljava_awt_event_ActionEvent_2 00407CE4
 0002:00000D78       _$EditarDepositoDialog_00024SymAction__4init_5__LEditarDepositoDialog_2 00407D78
 0002:00000DA0       _$EditarDepositoDialog_00024SymFocus_focusLost__Ljava_awt_event_FocusEvent_2 00407DA0
 0002:00000DE8       _$EditarDepositoDialog_00024SymFocus_focusGained__Ljava_awt_event_FocusEvent_2 00407DE8
 0002:00000E30       _$EditarDepositoDialog_00024SymFocus__4init_5__LEditarDepositoDialog_2 00407E30
 0002:00000E58       _$SelecionarDepositoDialog_excluir__ 00407E58
 0002:00000EE8       _$SelecionarDepositoDialog_inserir__ 00407EE8
 0002:00000F64       _$SelecionarDepositoDialog_editar__ 00407F64
 0002:00000FF4       _$SelecionarDepositoDialog_atualizar__ 00407FF4
 0002:00001078       _$SelecionarDepositoDialog__4init_5__Ljava_awt_Frame_2LYourdon_Projeto_2 00408078
 0002:000010CC       _$SelecionarDepositoDialog__4init_5__Ljava_awt_Frame_2Z 004080CC
 0002:000015F0       _$SelecionarDepositoDialog_addNotify__ 004085F0
 0002:0000176C       _$SelecionarDepositoDialog__4init_5__Ljava_awt_Frame_2Ljava_lang_String_2Z 0040876C
 0002:000017A4       _$SelecionarDepositoDialog_setVisible__Z 004087A4
 0002:00001840       _$SelecionarDepositoDialog_Dialog1_1WindowClosing__Ljava_awt_event_WindowEvent_2 00408840
 0002:00001864       _$SelecionarDepositoDialog_selecionar__ 00408864
 0002:000018BC       _$SelecionarDepositoDialog_selecionarButton_1ActionPerformed__Ljava_awt_event_ActionEvent_2 004088BC
 0002:000018D8       _$SelecionarDepositoDialog_fechar__ 004088D8
 0002:000018F4       _$SelecionarDepositoDialog_cancelarButton_1ActionPerformed__Ljava_awt_event_ActionEvent_2 004088F4
 0002:00001910       _$SelecionarDepositoDialog_inserirButton_1ActionPerformed__Ljava_awt_event_ActionEvent_2 00408910
 0002:0000192C       _$SelecionarDepositoDialog_editarButton_1ActionPerformed__Ljava_awt_event_ActionEvent_2 0040892C
 0002:00001948       _$SelecionarDepositoDialog_excluirButton_1ActionPerformed__Ljava_awt_event_ActionEvent_2 00408948
 0002:00001964       _$SelecionarDepositoDialog_list_1MouseClicked__Ljava_awt_event_MouseEvent_2 00408964
 0002:00001994       _$SelecionarDepositoDialog_ajudaButton_1ActionPerformed__Ljava_awt_event_ActionEvent_2 00408994
 0002:00001A54       _$SelecionarDepositoDialog_00024SymWindow_windowClosing__Ljava_awt_event_WindowEvent_2 00408A54
 0002:00001A98       _$SelecionarDepositoDialog_00024SymWindow__4init_5__LSelecionarDepositoDialog_2 00408A98
 0002:00001AC0       _$SelecionarDepositoDialog_00024SymAction_actionPerformed__Ljava_awt_event_ActionEvent_2 00408AC0
 0002:00001BD0       _$SelecionarDepositoDialog_00024SymAction__4init_5__LSelecionarDepositoDialog_2 00408BD0
 0002:00001BF8       _$SelecionarDepositoDialog_00024SymMouse_mouseClicked__Ljava_awt_event_MouseEvent_2 00408BF8
 0002:00001C40       _$SelecionarDepositoDialog_00024SymMouse__4init_5__LSelecionarDepositoDialog_2 00408C40
 0002:00001C68       _$SplashWindow__4init_5__Ljava_awt_Frame_2 00408C68
 0002:00001D94       _$SplashWindow_addNotify__ 00408D94
 0002:00001F10       _$SplashWindow_setVisible__Z 00408F10
 0002:00001FF0       _$SplashWindow_imageViewer1_1mouseClicked__Ljava_awt_event_MouseEvent_2 00408FF0
 0002:00002040       _$SplashWindow_00024SymMouse_mouseClicked__Ljava_awt_event_MouseEvent_2 00409040
 0002:00002088       _$SplashWindow_00024SymMouse__4init_5__LSplashWindow_2 00409088
 0002:000020B0       _$SelecionarEntidadeDialog_excluir__ 004090B0
 0002:00002140       _$SelecionarEntidadeDialog_inserir__ 00409140
 0002:000021BC       _$SelecionarEntidadeDialog_editar__ 004091BC
 0002:0000224C       _$SelecionarEntidadeDialog_atualizar__ 0040924C
 0002:000022D0       _$SelecionarEntidadeDialog__4init_5__Ljava_awt_Frame_2LYourdon_Projeto_2 004092D0
 0002:00002324       _$SelecionarEntidadeDialog__4init_5__Ljava_awt_Frame_2Z 00409324
 0002:00002848       _$SelecionarEntidadeDialog_addNotify__ 00409848
 0002:000029C4       _$SelecionarEntidadeDialog__4init_5__Ljava_awt_Frame_2Ljava_lang_String_2Z 004099C4
 0002:000029FC       _$SelecionarEntidadeDialog_setVisible__Z 004099FC
 0002:00002A98       _$SelecionarEntidadeDialog_Dialog1_1WindowClosing__Ljava_awt_event_WindowEvent_2 00409A98
 0002:00002ABC       _$SelecionarEntidadeDialog_selecionarButton_1ActionPerformed__Ljava_awt_event_ActionEvent_2 00409ABC
 0002:00002AD8       _$SelecionarEntidadeDialog_selecionar__ 00409AD8
 0002:00002B30       _$SelecionarEntidadeDialog_fechar__ 00409B30
 0002:00002B4C       _$SelecionarEntidadeDialog_cancelarButton_1ActionPerformed__Ljava_awt_event_ActionEvent_2 00409B4C
 0002:00002B68       _$SelecionarEntidadeDialog_inserirButton_1ActionPerformed__Ljava_awt_event_ActionEvent_2 00409B68
 0002:00002B84       _$SelecionarEntidadeDialog_editarButton_1ActionPerformed__Ljava_awt_event_ActionEvent_2 00409B84
 0002:00002BA0       _$SelecionarEntidadeDialog_excluirButton_1ActionPerformed__Ljava_awt_event_ActionEvent_2 00409BA0
 0002:00002BBC       _$SelecionarEntidadeDialog_list_1MouseClicked__Ljava_awt_event_MouseEvent_2 00409BBC
 0002:00002BEC       _$SelecionarEntidadeDialog_ajudaButton_1ActionPerformed__Ljava_awt_event_ActionEvent_2 00409BEC
 0002:00002CAC       _$SelecionarEntidadeDialog_00024SymWindow_windowClosing__Ljava_awt_event_WindowEvent_2 00409CAC
 0002:00002CF0       _$SelecionarEntidadeDialog_00024SymWindow__4init_5__LSelecionarEntidadeDialog_2 00409CF0
 0002:00002D18       _$SelecionarEntidadeDialog_00024SymAction_actionPerformed__Ljava_awt_event_ActionEvent_2 00409D18
 0002:00002E28       _$SelecionarEntidadeDialog_00024SymAction__4init_5__LSelecionarEntidadeDialog_2 00409E28
 0002:00002E50       _$SelecionarEntidadeDialog_00024SymMouse_mouseClicked__Ljava_awt_event_MouseEvent_2 00409E50
 0002:00002E98       _$SelecionarEntidadeDialog_00024SymMouse__4init_5__LSelecionarEntidadeDialog_2 00409E98
 0002:00002EC0       _$EditarProjetoDialog__4init_5__Ljava_awt_Frame_2LYourdon_Projeto_2Ljava_lang_String_2 00409EC0
 0002:00003060       _$EditarProjetoDialog__4init_5__Ljava_awt_Frame_2Z 0040A060
 0002:00003820       _$EditarProjetoDialog__4init_5__Ljava_awt_Frame_2Ljava_lang_String_2Z 0040A820
 0002:00003858       _$EditarProjetoDialog_setVisible__Z 0040A858
 0002:000038F4       _$EditarProjetoDialog_addNotify__ 0040A8F4
 0002:00003A70       _$EditarProjetoDialog_EditarProjetoDialog_1WindowClosing__Ljava_awt_event_WindowEvent_2 0040AA70
 0002:00003A94       _$EditarProjetoDialog_ok_1pro_1ActionPerformed__Ljava_awt_event_ActionEvent_2 0040AA94
 0002:00003B48       _$EditarProjetoDialog_cancel_1pro_1ActionPerformed__Ljava_awt_event_ActionEvent_2 0040AB48
 0002:00003B80       _$EditarProjetoDialog_button2_1ActionPerformed__Ljava_awt_event_ActionEvent_2 0040AB80
 0002:00003C40       _$EditarProjetoDialog_00024SymWindow_windowClosing__Ljava_awt_event_WindowEvent_2 0040AC40
 0002:00003C84       _$EditarProjetoDialog_00024SymWindow__4init_5__LEditarProjetoDialog_2 0040AC84
 0002:00003CAC       _$EditarProjetoDialog_00024SymAction_actionPerformed__Ljava_awt_event_ActionEvent_2 0040ACAC
 0002:00003D40       _$EditarProjetoDialog_00024SymAction__4init_5__LEditarProjetoDialog_2 0040AD40
 0002:00003D68       _$ConfirmarSalvarDialog__4init_5__Ljava_awt_Frame_2 0040AD68
 0002:00003DA4       _$ConfirmarSalvarDialog_getResposta__ 0040ADA4
 0002:00003DBC       _$ConfirmarSalvarDialog__4init_5__Ljava_awt_Frame_2Z 0040ADBC
 0002:00004044       _$ConfirmarSalvarDialog_addNotify__ 0040B044
 0002:000041C0       _$ConfirmarSalvarDialog__4init_5__Ljava_awt_Frame_2Ljava_lang_String_2Z 0040B1C0
 0002:000041F8       _$ConfirmarSalvarDialog_setVisible__Z 0040B1F8
 0002:00004294       _$ConfirmarSalvarDialog_QuitDialog_1WindowClosing__Ljava_awt_event_WindowEvent_2 0040B294
 0002:000042C8       _$ConfirmarSalvarDialog_yesButton_1Clicked__Ljava_awt_event_ActionEvent_2 0040B2C8
 0002:000042FC       _$ConfirmarSalvarDialog_noButton_1Clicked__Ljava_awt_event_ActionEvent_2 0040B2FC
 0002:00004330       _$ConfirmarSalvarDialog_cancelButton_1ActionPerformed__Ljava_awt_event_ActionEvent_2 0040B330
 0002:00004364       _$ConfirmarSalvarDialog_00024SymWindow_windowClosing__Ljava_awt_event_WindowEvent_2 0040B364
 0002:000043A8       _$ConfirmarSalvarDialog_00024SymWindow__4init_5__LConfirmarSalvarDialog_2 0040B3A8
 0002:000043D0       _$ConfirmarSalvarDialog_00024SymAction_actionPerformed__Ljava_awt_event_ActionEvent_2 0040B3D0
 0002:00004464       _$ConfirmarSalvarDialog_00024SymAction__4init_5__LConfirmarSalvarDialog_2 0040B464
 0002:0000448C       _$PowerCase_editarProjeto__ 0040B48C
 0002:000044D4       _$PowerCase_fecharArquivo__ 0040B4D4
 0002:00004594       _$PowerCase_abrir__        0040B594
 0002:000047FC       _$PowerCase_setEstadoMenu__Z 0040B7FC
 0002:00004918       _$PowerCase_salvarComo__   0040B918
 0002:00004AC4       _$PowerCase_salvar__       0040BAC4
 0002:00004BE4       _$PowerCase_fechar__       0040BBE4
 0002:00004D50       _$PowerCase_novo__         0040BD50
 0002:00004E30       _$PowerCase__4init_5__     0040BE30
 0002:0000672C       _$PowerCase__4init_5__Ljava_lang_String_2 0040D72C
 0002:0000675C       _$PowerCase_setVisible__Z  0040D75C
 0002:00006798       _$PowerCase_main___3Ljava_lang_String_2 0040D798
 0002:000067C0       _$PowerCase_addNotify__    0040D7C0
 0002:0000693C       _$PowerCase_Frame1_1WindowClosing__Ljava_awt_event_WindowEvent_2 0040D93C
 0002:0000698C       _$PowerCase_miAbout_1Action__Ljava_awt_event_ActionEvent_2 0040D98C
 0002:000069D0       _$PowerCase_miExit_1Action__Ljava_awt_event_ActionEvent_2 0040D9D0
 0002:00006A0C       _$PowerCase_miOpen_1Action__Ljava_awt_event_ActionEvent_2 0040DA0C
 0002:00006A28       _$PowerCase_dfd_1ActionPerformed__Ljava_awt_event_ActionEvent_2 0040DA28
 0002:00006A74       _$PowerCase_imageButton1_1actionPerformed__Ljava_awt_event_ActionEvent_2 0040DA74
 0002:00006A9C       _$PowerCase_miSave_1ActionPerformed__Ljava_awt_event_ActionEvent_2 0040DA9C
 0002:00006AB8       _$PowerCase_miSaveAs_1ActionPerformed__Ljava_awt_event_ActionEvent_2 0040DAB8
 0002:00006AD4       _$PowerCase_miNew_1ActionPerformed__Ljava_awt_event_ActionEvent_2 0040DAD4
 0002:00006B04       _$PowerCase_Fechar_1ActionPerformed__Ljava_awt_event_ActionEvent_2 0040DB04
 0002:00006B20       _$PowerCase_Propiedades_1ActionPerformed__Ljava_awt_event_ActionEvent_2 0040DB20
 0002:00006B3C       _$PowerCase_imageButtonAbrir_1actionPerformed__Ljava_awt_event_ActionEvent_2 0040DB3C
 0002:00006B64       _$PowerCase_imageButtonSalvar_1actionPerformed__Ljava_awt_event_ActionEvent_2 0040DB64
 0002:00006B8C       _$PowerCase_imageButtonEditar_1actionPerformed__Ljava_awt_event_ActionEvent_2 0040DB8C
 0002:00006BB4       _$PowerCase_imageButtonEntidades_1actionPerformed__Ljava_awt_event_ActionEvent_2 0040DBB4
 0002:00006BDC       _$PowerCase_Entidades_1ActionPerformed__Ljava_awt_event_ActionEvent_2 0040DBDC
 0002:00006C20       _$PowerCase_PowerFrame_1WindowActivated__Ljava_awt_event_WindowEvent_2 0040DC20
 0002:00006C90       _$PowerCase_Eventos_1ActionPerformed__Ljava_awt_event_ActionEvent_2 0040DC90
 0002:00006CD4       _$PowerCase_imageButtonEventos_1actionPerformed__Ljava_awt_event_ActionEvent_2 0040DCD4
 0002:00006CFC       _$PowerCase_Contexto_1ActionPerformed__Ljava_awt_event_ActionEvent_2 0040DCFC
 0002:00006D44       _$PowerCase_imageButtonContexto_1actionPerformed__Ljava_awt_event_ActionEvent_2 0040DD44
 0002:00006D6C       _$PowerCase_imageButtonDfd_1actionPerformed__Ljava_awt_event_ActionEvent_2 0040DD6C
 0002:00006D94       _$PowerCase_imageButtonVerificar_1actionPerformed__Ljava_awt_event_ActionEvent_2 0040DD94
 0002:00006DBC       _$PowerCase_verificarMenu_1ActionPerformed__Ljava_awt_event_ActionEvent_2 0040DDBC
 0002:00006DC8       _$PowerCase_imageButtonAjuda_1actionPerformed__Ljava_awt_event_ActionEvent_2 0040DDC8
 0002:00006DF0       _$PowerCase_conteudoButton_1ActionPerformed__Ljava_awt_event_ActionEvent_2 0040DDF0
 0002:00006E98       _$PowerCase_00024SymWindow_windowActivated__Ljava_awt_event_WindowEvent_2 0040DE98
 0002:00006EDC       _$PowerCase_00024SymWindow_windowClosing__Ljava_awt_event_WindowEvent_2 0040DEDC
 0002:00006F20       _$PowerCase_00024SymWindow__4init_5__LPowerCase_2 0040DF20
 0002:00006F48       _$PowerCase_00024SymAction_actionPerformed__Ljava_awt_event_ActionEvent_2 0040DF48
 0002:00007354       _$PowerCase_00024SymAction__4init_5__LPowerCase_2 0040E354
 0002:0000737C       _$AboutDialog__4init_5__Ljava_awt_Frame_2Z 0040E37C
 0002:00007684       _$AboutDialog__4init_5__Ljava_awt_Frame_2Ljava_lang_String_2Z 0040E684
 0002:000076BC       _$AboutDialog_addNotify__  0040E6BC
 0002:00007838       _$AboutDialog_setVisible__Z 0040E838
 0002:000078D4       _$AboutDialog_AboutDialog_1WindowClosing__Ljava_awt_event_WindowEvent_2 0040E8D4
 0002:000078F0       _$AboutDialog_okButton_1Clicked__Ljava_awt_event_ActionEvent_2 0040E8F0
 0002:0000790C       _$AboutDialog_00024SymWindow_windowClosing__Ljava_awt_event_WindowEvent_2 0040E90C
 0002:00007950       _$AboutDialog_00024SymWindow__4init_5__LAboutDialog_2 0040E950
 0002:00007978       _$AboutDialog_00024SymAction_actionPerformed__Ljava_awt_event_ActionEvent_2 0040E978
 0002:000079C0       _$AboutDialog_00024SymAction__4init_5__LAboutDialog_2 0040E9C0
 0002:000079E8       _$QuitDialog__4init_5__Ljava_awt_Frame_2Z 0040E9E8
 0002:00007BF0       _$QuitDialog_addNotify__   0040EBF0
 0002:00007D6C       _$QuitDialog__4init_5__Ljava_awt_Frame_2Ljava_lang_String_2Z 0040ED6C
 0002:00007DA4       _$QuitDialog_setVisible__Z 0040EDA4
 0002:00007E40       _$QuitDialog_QuitDialog_1WindowClosing__Ljava_awt_event_WindowEvent_2 0040EE40
 0002:00007E5C       _$QuitDialog_yesButton_1Clicked__Ljava_awt_event_ActionEvent_2 0040EE5C
 0002:00007ECC       _$QuitDialog_noButton_1Clicked__Ljava_awt_event_ActionEvent_2 0040EECC
 0002:00007EE8       _$QuitDialog_00024SymWindow_windowClosing__Ljava_awt_event_WindowEvent_2 0040EEE8
 0002:00007F2C       _$QuitDialog_00024SymWindow__4init_5__LQuitDialog_2 0040EF2C
 0002:00007F54       _$QuitDialog_00024SymAction_actionPerformed__Ljava_awt_event_ActionEvent_2 0040EF54
 0002:00007FC4       _$QuitDialog_00024SymAction__4init_5__LQuitDialog_2 0040EFC4
 0002:00007FEC       _$DFDDialog__4init_5__Ljava_awt_Frame_2LYourdon_Projeto_2LYourdon_Diagrama_2 0040EFEC
 0002:00008148       _$DFDDialog__4init_5__Ljava_awt_Frame_2Z 0040F148
 0002:00008D9C       _$DFDDialog_addNotify__    0040FD9C
 0002:00008F18       _$DFDDialog__4init_5__Ljava_awt_Frame_2Ljava_lang_String_2Z 0040FF18
 0002:00008F50       _$DFDDialog_setVisible__Z  0040FF50
 0002:00008FEC       _$DFDDialog_Dialog1_1WindowClosing__Ljava_awt_event_WindowEvent_2 0040FFEC
 0002:00009010       _$DFDDialog_selecionarButton_1actionPerformed__Ljava_awt_event_ActionEvent_2 00410010
 0002:00009038       _$DFDDialog_excluirButton_1actionPerformed__Ljava_awt_event_ActionEvent_2 00410038
 0002:0000905C       _$DFDDialog_processoButton_1actionPerformed__Ljava_awt_event_ActionEvent_2 0041005C
 0002:00009088       _$DFDDialog_entidadeButton_1actionPerformed__Ljava_awt_event_ActionEvent_2 00410088
 0002:000090B4       _$DFDDialog_depositoButton_1actionPerformed__Ljava_awt_event_ActionEvent_2 004100B4
 0002:000090E0       _$DFDDialog_fluxoButton_1actionPerformed__Ljava_awt_event_ActionEvent_2 004100E0
 0002:0000910C       _$DFDDialog_decomporButton_1actionPerformed__Ljava_awt_event_ActionEvent_2 0041010C
 0002:00009130       _$DFDDialog_verificarButton_1actionPerformed__Ljava_awt_event_ActionEvent_2 00410130
 0002:00009154       _$DFDDialog_editarButton_1actionPerformed__Ljava_awt_event_ActionEvent_2 00410154
 0002:000091CC       _$DFDDialog_DFDDialog_1WindowActivated__Ljava_awt_event_WindowEvent_2 004101CC
 0002:00009248       _$DFDDialog_ajudaButton_1actionPerformed__Ljava_awt_event_ActionEvent_2 00410248
 0002:00009308       _$DFDDialog__4clinit_5__   00410308
 0002:00009330       _$DFDDialog_00024SymWindow_windowActivated__Ljava_awt_event_WindowEvent_2 00410330
 0002:00009374       _$DFDDialog_00024SymWindow_windowClosing__Ljava_awt_event_WindowEvent_2 00410374
 0002:000093B8       _$DFDDialog_00024SymWindow__4init_5__LDFDDialog_2 004103B8
 0002:000093E0       _$DFDDialog_00024SymAction_actionPerformed__Ljava_awt_event_ActionEvent_2 004103E0
 0002:00009594       _$DFDDialog_00024SymAction__4init_5__LDFDDialog_2 00410594
 0002:000095BC       _$Yourdon_Projeto_setRevisao__Ljava_util_Date_2 004105BC
 0002:000095D8       _$Yourdon_Projeto_getRevisao__ 004105D8
 0002:000095EC       _$Yourdon_Projeto_setObjetivo__Ljava_lang_String_2 004105EC
 0002:00009608       _$Yourdon_Projeto_setResponsavel__Ljava_lang_String_2 00410608
 0002:00009624       _$Yourdon_Projeto_getResponsavel__ 00410624
 0002:00009638       _$Yourdon_Projeto_getObjetivo__ 00410638
 0002:0000964C       _$Yourdon_Projeto_getCriacao__ 0041064C
 0002:00009660       _$Yourdon_Projeto_setDescricao__Ljava_lang_String_2 00410660
 0002:0000967C       _$Yourdon_Projeto_getDescricao__ 0041067C
 0002:00009690       _$Yourdon_Projeto_setNome__Ljava_lang_String_2 00410690
 0002:000096BC       _$Yourdon_Projeto_getNome__ 004106BC
 0002:000096E0       _$Yourdon_Projeto__4init_5__ 004106E0
 0002:000097F8       _$Yourdon_Diagrama_excluirSimboloHerdadoElemento__LYourdon_ElementoEssencial_2 004107F8
 0002:00009884       _$Yourdon_Diagrama_adicionarSimboloHerdadoDetalhe__LYourdon_Diagrama_2LYourdon_Simbolo_2 00410884
 0002:00009944       _$Yourdon_Diagrama_decomporProcessoSelecionado__ 00410944
 0002:00009B10       _$Yourdon_Diagrama_selecionarSimbolo__LYourdon_Simbolo_2 00410B10
 0002:00009B64       _$Yourdon_Diagrama_adicionarSimboloDeposito__LYourdon_Deposito_2Ljava_awt_Point_2 00410B64
 0002:00009B8C       _$Yourdon_Diagrama_adicionarSimboloDeposito__LYourdon_Deposito_2Ljava_awt_Point_2Z 00410B8C
 0002:00009BD0       _$Yourdon_Diagrama_excluirReferenciaElemento__LYourdon_ElementoEssencial_2 00410BD0
 0002:00009C90       _$Yourdon_Diagrama_excluirSimbolo__LYourdon_Simbolo_2 00410C90
 0002:00009D98       _$Yourdon_Diagrama_excluirFluxoReferencia__LYourdon_SimboloMovel_2 00410D98
 0002:00009E5C       _$Yourdon_Diagrama_adicionarSimboloFluxo__LYourdon_Fluxo_2LYourdon_SimboloMovel_2LYourdon_SimboloMovel_2 00410E5C
 0002:00009E88       _$Yourdon_Diagrama_adicionarSimboloFluxo__LYourdon_Fluxo_2LYourdon_SimboloMovel_2LYourdon_SimboloMovel_2Z 00410E88
 0002:00009F64       _$Yourdon_Diagrama_excluirSimboloSelecionado__ 00410F64
 0002:00009FB4       _$Yourdon_Diagrama_adicionarSimboloProcesso__LYourdon_Processo_2Ljava_awt_Point_2 00410FB4
 0002:00009FDC       _$Yourdon_Diagrama_adicionarSimboloProcesso__LYourdon_Processo_2Ljava_awt_Point_2Z 00410FDC
 0002:0000A020       _$Yourdon_Diagrama_adicionarSimboloEntidade__LYourdon_Entidade_2Ljava_awt_Point_2Z 00411020
 0002:0000A064       _$Yourdon_Diagrama_adicionarSimboloEntidade__LYourdon_Entidade_2Ljava_awt_Point_2 00411064
 0002:0000A08C       _$Yourdon_Diagrama__4init_5__LYourdon_Processo_2 0041108C
 0002:0000A0C4       _$Yourdon_Diagrama_moverSimboloSelecionado__II 004110C4
 0002:0000A0EC       _$Yourdon_Diagrama_selecionarSimbolo__Ljava_awt_Point_2 004110EC
 0002:0000A194       _$Yourdon_Diagrama_getSimboloSelecionado__ 00411194
 0002:0000A1A8       _$Yourdon_Diagrama_desenhar__Ljava_awt_Graphics_2 004111A8
 0002:0000A20C       _$Yourdon_ElementoEssencial_setDescricao__Ljava_lang_String_2 0041120C
 0002:0000A224       _$Yourdon_ElementoEssencial_getDescricao__ 00411224
 0002:0000A238       _$Yourdon_ElementoEssencial__4init_5__Ljava_lang_String_2 00411238
 0002:0000A260       _$Yourdon_SimboloEntidade__4init_5__LYourdon_Entidade_2Ljava_awt_Point_2Z 00411260
 0002:0000A288       _$Yourdon_SimboloEntidade_desenhar__Ljava_awt_Graphics_2 00411288
 0002:0000A41C       _$Yourdon_Entidade__4init_5__Ljava_lang_String_2 0041141C
 0002:0000A43C       _$Yourdon_SimboloMovel_getAresta__Ljava_awt_Point_2 0041143C
 0002:0000A4EC       _$Yourdon_SimboloMovel__4init_5__ILYourdon_ElementoEssencial_2Ljava_awt_Point_2Z 004114EC
 0002:0000A544       _$Yourdon_Simbolo__4init_5__ILYourdon_ElementoEssencial_2Z 00411544
 0002:0000A5D0       _$Yourdon_Simbolo_selecionar__Z 004115D0
 0002:0000A668       _$Yourdon_Simbolo_getHerdado__ 00411668
 0002:0000A67C       _$Yourdon_Simbolo_getTipoSimbolo__ 0041167C
 0002:0000A690       _$Yourdon_Simbolo_contemPonto__Ljava_awt_Point_2 00411690
 0002:0000A6B4       _$Yourdon_Simbolo_mover__II 004116B4
 0002:0000A6DC       _$Yourdon_Simbolo_getCentro__ 004116DC
 0002:0000A730       _$Yourdon_Simbolo__4clinit_5__ 00411730
 0002:0000A7EC       _$Yourdon_ListaEntidades_remover__I 004117EC
 0002:0000A810       _$Yourdon_ListaEntidades_getEntidade__I 00411810
 0002:0000A890       _$Yourdon_ListaEntidades_getProximo__ 00411890
 0002:0000A90C       _$Yourdon_ListaEntidades_getPrimeiro__ 0041190C
 0002:0000A92C       _$Yourdon_ListaEntidades__4init_5__ 0041192C
 0002:0000A948       _$Yourdon_ListaEntidades_adicionar__Ljava_lang_String_2 00411948
 0002:0000A988       _$Yourdon_ListaElementos__4init_5__ 00411988
 0002:0000A9B8       _$Yourdon_ListaElementos_getQuantidade__ 004119B8
 0002:0000A9D4       _$Yourdon_ListaProcessos_remover__LYourdon_Processo_2 004119D4
 0002:0000AA18       _$Yourdon_ListaProcessos_adicionar__LYourdon_Processo_2Ljava_lang_String_2 00411A18
 0002:0000AA5C       _$Yourdon_ListaProcessos__4init_5__ 00411A5C
 0002:0000AA98       _$ContextoDialog__4init_5__Ljava_awt_Frame_2LYourdon_Projeto_2LYourdon_Diagrama_2 00411A98
 0002:0000ABF4       _$ContextoDialog__4init_5__Ljava_awt_Frame_2Z 00411BF4
 0002:0000B50C       _$ContextoDialog_addNotify__ 0041250C
 0002:0000B688       _$ContextoDialog__4init_5__Ljava_awt_Frame_2Ljava_lang_String_2Z 00412688
 0002:0000B6C0       _$ContextoDialog_setVisible__Z 004126C0
 0002:0000B75C       _$ContextoDialog_Dialog1_1WindowClosing__Ljava_awt_event_WindowEvent_2 0041275C
 0002:0000B780       _$ContextoDialog_selecionarButton_1actionPerformed__Ljava_awt_event_ActionEvent_2 00412780
 0002:0000B7A8       _$ContextoDialog_excluirButton_1actionPerformed__Ljava_awt_event_ActionEvent_2 004127A8
 0002:0000B7CC       _$ContextoDialog_processoButton_1actionPerformed__Ljava_awt_event_ActionEvent_2 004127CC
 0002:0000B7F8       _$ContextoDialog_entidadeButton_1actionPerformed__Ljava_awt_event_ActionEvent_2 004127F8
 0002:0000B824       _$ContextoDialog_depositoButton_1actionPerformed__Ljava_awt_event_ActionEvent_2 00412824
 0002:0000B850       _$ContextoDialog_fluxoButton_1actionPerformed__Ljava_awt_event_ActionEvent_2 00412850
 0002:0000B87C       _$ContextoDialog_decomporButton_1actionPerformed__Ljava_awt_event_ActionEvent_2 0041287C
 0002:0000B8A0       _$ContextoDialog_verificarButton_1actionPerformed__Ljava_awt_event_ActionEvent_2 004128A0
 0002:0000B8C4       _$ContextoDialog_editarButton_1actionPerformed__Ljava_awt_event_ActionEvent_2 004128C4
 0002:0000B93C       _$ContextoDialog_ContextoDialog_1WindowActivated__Ljava_awt_event_WindowEvent_2 0041293C
 0002:0000B9B8       _$ContextoDialog_ajudaButton_1actionPerformed__Ljava_awt_event_ActionEvent_2 004129B8
 0002:0000BA78       _$ContextoDialog__4clinit_5__ 00412A78
 0002:0000BAA0       _$ContextoDialog_00024SymWindow_windowActivated__Ljava_awt_event_WindowEvent_2 00412AA0
 0002:0000BAE4       _$ContextoDialog_00024SymWindow_windowClosing__Ljava_awt_event_WindowEvent_2 00412AE4
 0002:0000BB28       _$ContextoDialog_00024SymWindow__4init_5__LContextoDialog_2 00412B28
 0002:0000BB50       _$ContextoDialog_00024SymAction_actionPerformed__Ljava_awt_event_ActionEvent_2 00412B50
 0002:0000BC88       _$ContextoDialog_00024SymAction__4init_5__LContextoDialog_2 00412C88
 0002:0000BCB0       _$EntidadesDialog_excluir__ 00412CB0
 0002:0000BD40       _$EntidadesDialog_inserir__ 00412D40
 0002:0000BDBC       _$EntidadesDialog_editar__ 00412DBC
 0002:0000BE4C       _$EntidadesDialog_atualizar__ 00412E4C
 0002:0000BED0       _$EntidadesDialog__4init_5__Ljava_awt_Frame_2LYourdon_Projeto_2 00412ED0
 0002:0000BF74       _$EntidadesDialog__4init_5__Ljava_awt_Frame_2Z 00412F74
 0002:0000C3F4       _$EntidadesDialog_addNotify__ 004133F4
 0002:0000C570       _$EntidadesDialog__4init_5__Ljava_awt_Frame_2Ljava_lang_String_2Z 00413570
 0002:0000C5A8       _$EntidadesDialog_setVisible__Z 004135A8
 0002:0000C644       _$EntidadesDialog_Dialog1_1WindowClosing__Ljava_awt_event_WindowEvent_2 00413644
 0002:0000C668       _$EntidadesDialog_fechar__ 00413668
 0002:0000C684       _$EntidadesDialog_cancelarButton_1ActionPerformed__Ljava_awt_event_ActionEvent_2 00413684
 0002:0000C6A0       _$EntidadesDialog_inserirButton_1ActionPerformed__Ljava_awt_event_ActionEvent_2 004136A0
 0002:0000C6BC       _$EntidadesDialog_editarButton_1ActionPerformed__Ljava_awt_event_ActionEvent_2 004136BC
 0002:0000C6D8       _$EntidadesDialog_excluirButton_1ActionPerformed__Ljava_awt_event_ActionEvent_2 004136D8
 0002:0000C6F4       _$EntidadesDialog_EntidadesDialog_1WindowActivated__Ljava_awt_event_WindowEvent_2 004136F4
 0002:0000C710       _$EntidadesDialog_list_1MouseClicked__Ljava_awt_event_MouseEvent_2 00413710
 0002:0000C740       _$EntidadesDialog_ajudaButton_1ActionPerformed__Ljava_awt_event_ActionEvent_2 00413740
 0002:0000C800       _$EntidadesDialog_00024SymWindow_windowActivated__Ljava_awt_event_WindowEvent_2 00413800
 0002:0000C844       _$EntidadesDialog_00024SymWindow_windowClosing__Ljava_awt_event_WindowEvent_2 00413844
 0002:0000C888       _$EntidadesDialog_00024SymWindow__4init_5__LEntidadesDialog_2 00413888
 0002:0000C8B0       _$EntidadesDialog_00024SymAction_actionPerformed__Ljava_awt_event_ActionEvent_2 004138B0
 0002:0000C998       _$EntidadesDialog_00024SymAction__4init_5__LEntidadesDialog_2 00413998
 0002:0000C9C0       _$EntidadesDialog_00024SymMouse_mouseClicked__Ljava_awt_event_MouseEvent_2 004139C0
 0002:0000CA08       _$EntidadesDialog_00024SymMouse__4init_5__LEntidadesDialog_2 00413A08
 0002:0000CA30       _$EventosDialog_editar__   00413A30
 0002:0000CB10       _$EventosDialog_excluir__  00413B10
 0002:0000CBEC       _$EventosDialog_inserir__  00413BEC
 0002:0000CD2C       _$EventosDialog_fechar__   00413D2C
 0002:0000CD48       _$EventosDialog_atualizar__ 00413D48
 0002:0000CE90       _$EventosDialog__4init_5__Ljava_awt_Frame_2LYourdon_Projeto_2 00413E90
 0002:0000D0BC       _$EventosDialog__4init_5__Ljava_awt_Frame_2Z 004140BC
 0002:0000D77C       _$EventosDialog_addNotify__ 0041477C
 0002:0000D8F8       _$EventosDialog_EventoDialog_1WindowClosing__Ljava_awt_event_WindowEvent_2 004148F8
 0002:0000D914       _$EventosDialog_OKbutton_1ActionPerformed__Ljava_awt_event_ActionEvent_2 00414914
 0002:0000D930       _$EventosDialog_EventoDialog_1WindowActivated__Ljava_awt_event_WindowEvent_2 00414930
 0002:0000D9BC       _$EventosDialog_radioButtonEntidade_1ItemStateChanged__Ljava_awt_event_ItemEvent_2 004149BC
 0002:0000DA28       _$EventosDialog_radioButtonTemporal_1ItemStateChanged__Ljava_awt_event_ItemEvent_2 00414A28
 0002:0000DA84       _$EventosDialog_choiceEntidades_1ItemStateChanged__Ljava_awt_event_ItemEvent_2 00414A84
 0002:0000DAA0       _$EventosDialog_Inserirbutton_1ActionPerformed__Ljava_awt_event_ActionEvent_2 00414AA0
 0002:0000DABC       _$EventosDialog_Editarbutton_1ActionPerformed__Ljava_awt_event_ActionEvent_2 00414ABC
 0002:0000DAD8       _$EventosDialog_Excluirbutton_1ActionPerformed__Ljava_awt_event_ActionEvent_2 00414AD8
 0002:0000DAF4       _$EventosDialog_multiList1_1mouseClicked__Ljava_awt_event_MouseEvent_2 00414AF4
 0002:0000DB24       _$EventosDialog_setVisible__Z 00414B24
 0002:0000DBC0       _$EventosDialog_Ajudabutton_1ActionPerformed__Ljava_awt_event_ActionEvent_2 00414BC0
 0002:0000DC80       _$EventosDialog_00024SymWindow_windowActivated__Ljava_awt_event_WindowEvent_2 00414C80
 0002:0000DCC4       _$EventosDialog_00024SymWindow_windowClosing__Ljava_awt_event_WindowEvent_2 00414CC4
 0002:0000DD08       _$EventosDialog_00024SymWindow__4init_5__LEventosDialog_2 00414D08
 0002:0000DD30       _$EventosDialog_00024SymAction_actionPerformed__Ljava_awt_event_ActionEvent_2 00414D30
 0002:0000DE18       _$EventosDialog_00024SymAction__4init_5__LEventosDialog_2 00414E18
 0002:0000DE40       _$EventosDialog_00024SymItem_itemStateChanged__Ljava_awt_event_ItemEvent_2 00414E40
 0002:0000DED4       _$EventosDialog_00024SymItem__4init_5__LEventosDialog_2 00414ED4
 0002:0000DEFC       _$EventosDialog_00024SymMouse_mouseClicked__Ljava_awt_event_MouseEvent_2 00414EFC
 0002:0000DF44       _$EventosDialog_00024SymMouse__4init_5__LEventosDialog_2 00414F44
 0002:0000DF6C       _$EditarEventoDialog__4init_5__Ljava_awt_Frame_2Ljava_lang_String_2Z 00414F6C
 0002:0000DFA4       _$EditarEventoDialog__4init_5__Ljava_awt_Frame_2LYourdon_ListaEntidades_2LYourdon_Evento_2 00414FA4
 0002:0000E198       _$EditarEventoDialog__4init_5__Ljava_awt_Frame_2Z 00415198
 0002:0000EA1C       _$EditarEventoDialog_addNotify__ 00415A1C
 0002:0000EB98       _$EditarEventoDialog_EditarEventoDialog_1WindowClosing__Ljava_awt_event_WindowEvent_2 00415B98
 0002:0000EBBC       _$EditarEventoDialog_OKbutton_1ActionPerformed__Ljava_awt_event_ActionEvent_2 00415BBC
 0002:0000ECB4       _$EditarEventoDialog_Cancelarbutton_1ActionPerformed__Ljava_awt_event_ActionEvent_2 00415CB4
 0002:0000ECEC       _$EditarEventoDialog_radioButtonTemporal_1ItemStateChanged__Ljava_awt_event_ItemEvent_2 00415CEC
 0002:0000ED3C       _$EditarEventoDialog_radioButtonEntidade_1ItemStateChanged__Ljava_awt_event_ItemEvent_2 00415D3C
 0002:0000ED9C       _$EditarEventoDialog_textFieldEvento_1FocusGained__Ljava_awt_event_FocusEvent_2 00415D9C
 0002:0000EDC0       _$EditarEventoDialog_textFieldEvento_1FocusLost__Ljava_awt_event_FocusEvent_2 00415DC0
 0002:0000EDEC       _$EditarEventoDialog_textFieldEstimulo_1FocusGained__Ljava_awt_event_FocusEvent_2 00415DEC
 0002:0000EE10       _$EditarEventoDialog_textFieldEstimulo_1FocusLost__Ljava_awt_event_FocusEvent_2 00415E10
 0002:0000EE3C       _$EditarEventoDialog_textFieldResposta_1FocusGained__Ljava_awt_event_FocusEvent_2 00415E3C
 0002:0000EE60       _$EditarEventoDialog_textFieldResposta_1FocusLost__Ljava_awt_event_FocusEvent_2 00415E60
 0002:0000EE8C       _$EditarEventoDialog_Ajudabutton_1ActionPerformed__Ljava_awt_event_ActionEvent_2 00415E8C
 0002:0000EF4C       _$EditarEventoDialog_setVisible__Z 00415F4C
 0002:0000EFE8       _$EditarEventoDialog_00024SymWindow_windowClosing__Ljava_awt_event_WindowEvent_2 00415FE8
 0002:0000F02C       _$EditarEventoDialog_00024SymWindow__4init_5__LEditarEventoDialog_2 0041602C
 0002:0000F054       _$EditarEventoDialog_00024SymAction_actionPerformed__Ljava_awt_event_ActionEvent_2 00416054
 0002:0000F0E8       _$EditarEventoDialog_00024SymAction__4init_5__LEditarEventoDialog_2 004160E8
 0002:0000F110       _$EditarEventoDialog_00024SymItem_itemStateChanged__Ljava_awt_event_ItemEvent_2 00416110
 0002:0000F180       _$EditarEventoDialog_00024SymItem__4init_5__LEditarEventoDialog_2 00416180
 0002:0000F1A8       _$EditarEventoDialog_00024SymFocus_focusLost__Ljava_awt_event_FocusEvent_2 004161A8
 0002:0000F23C       _$EditarEventoDialog_00024SymFocus_focusGained__Ljava_awt_event_FocusEvent_2 0041623C
 0002:0000F2D0       _$EditarEventoDialog_00024SymFocus__4init_5__LEditarEventoDialog_2 004162D0
 0002:0000F2F8       _$DiagramaCanvas_criarDeposito__Ljava_awt_Point_2 004162F8
 0002:0000F3A4       _$DiagramaCanvas_criarFluxo__Ljava_awt_Point_2 004163A4
 0002:0000F5FC       _$DiagramaCanvas_criarProcesso__Ljava_awt_Point_2 004165FC
 0002:0000F69C       _$DiagramaCanvas_editar__  0041669C
 0002:0000F80C       _$DiagramaCanvas_update__Ljava_awt_Graphics_2 0041680C
 0002:0000F834       _$DiagramaCanvas_selecionarSimbolo__Ljava_awt_Point_2 00416834
 0002:0000F874       _$DiagramaCanvas_criarEntidade__Ljava_awt_Point_2 00416874
 0002:0000F920       _$DiagramaCanvas_verificarDiagrama__ 00416920
 0002:0000F934       _$DiagramaCanvas_decomporProcessoSelecionado__ 00416934
 0002:0000F9A4       _$DiagramaCanvas_excluirSimboloSelecionado__ 004169A4
 0002:0000FA70       _$DiagramaCanvas_setEstado__I 00416A70
 0002:0000FAF4       _$DiagramaCanvas_paint__Ljava_awt_Graphics_2 00416AF4
 0002:0000FBD0       _$DiagramaCanvas__4init_5__Ljava_awt_Frame_2LYourdon_Projeto_2LYourdon_Diagrama_2 00416BD0
 0002:0000FC68       _$DiagramaCanvas_canvas_1MousePressed__Ljava_awt_event_MouseEvent_2 00416C68
 0002:0000FD58       _$DiagramaCanvas_canvas_1MouseReleased__Ljava_awt_event_MouseEvent_2 00416D58
 0002:0000FD74       _$DiagramaCanvas_canvas_1MouseDragged__Ljava_awt_event_MouseEvent_2 00416D74
 0002:0000FDE0       _$DiagramaCanvas__4clinit_5__ 00416DE0
 0002:0000FE18       _$DiagramaCanvas_00024DiagramaCanvasMouseListener_mousePressed__Ljava_awt_event_MouseEvent_2 00416E18
 0002:0000FE5C       _$DiagramaCanvas_00024DiagramaCanvasMouseListener_mouseReleased__Ljava_awt_event_MouseEvent_2 00416E5C
 0002:0000FEA0       _$DiagramaCanvas_00024DiagramaCanvasMouseListener__4init_5__LDiagramaCanvas_2 00416EA0
 0002:0000FEC8       _$DiagramaCanvas_00024DiagramaCanvasMouseMotionListener_mouseDragged__Ljava_awt_event_MouseEvent_2 00416EC8
 0002:0000FF0C       _$DiagramaCanvas_00024DiagramaCanvasMouseMotionListener__4init_5__LDiagramaCanvas_2 00416F0C
 0002:0000FF34       _$EditarEntidadeDialog_abrir__ 00416F34
 0002:0000FF54       _$EditarEntidadeDialog_fechar__ 00416F54
 0002:0000FF70       _$EditarEntidadeDialog_ok__ 00416F70
 0002:0000FFB0       _$EditarEntidadeDialog__4init_5__Ljava_awt_Frame_2LYourdon_Entidade_2 00416FB0
 0002:00010058       _$EditarEntidadeDialog__4init_5__Ljava_awt_Frame_2Z 00417058
 0002:000103D0       _$EditarEntidadeDialog_addNotify__ 004173D0
 0002:0001054C       _$EditarEntidadeDialog__4init_5__Ljava_awt_Frame_2Ljava_lang_String_2Z 0041754C
 0002:00010584       _$EditarEntidadeDialog_setVisible__Z 00417584
 0002:00010620       _$EditarEntidadeDialog_Dialog1_1WindowClosing__Ljava_awt_event_WindowEvent_2 00417620
 0002:00010644       _$EditarEntidadeDialog_buttonCancelar_1ActionPerformed__Ljava_awt_event_ActionEvent_2 00417644
 0002:00010660       _$EditarEntidadeDialog_buttonOk_1ActionPerformed__Ljava_awt_event_ActionEvent_2 00417660
 0002:00010698       _$EditarEntidadeDialog_EditarEntidadeDialog_1WindowOpened__Ljava_awt_event_WindowEvent_2 00417698
 0002:000106B4       _$EditarEntidadeDialog_buttonAjuda_1ActionPerformed__Ljava_awt_event_ActionEvent_2 004176B4
 0002:00010774       _$EditarEntidadeDialog_textFieldDescricao_1FocusGained__Ljava_awt_event_FocusEvent_2 00417774
 0002:00010798       _$EditarEntidadeDialog_textFieldDescricao_1FocusLost__Ljava_awt_event_FocusEvent_2 00417798
 0002:000107C4       _$EditarEntidadeDialog_00024SymWindow_windowOpened__Ljava_awt_event_WindowEvent_2 004177C4
 0002:00010808       _$EditarEntidadeDialog_00024SymWindow_windowClosing__Ljava_awt_event_WindowEvent_2 00417808
 0002:0001084C       _$EditarEntidadeDialog_00024SymWindow__4init_5__LEditarEntidadeDialog_2 0041784C
 0002:00010874       _$EditarEntidadeDialog_00024SymAction_actionPerformed__Ljava_awt_event_ActionEvent_2 00417874
 0002:00010908       _$EditarEntidadeDialog_00024SymAction__4init_5__LEditarEntidadeDialog_2 00417908
 0002:00010930       _$EditarEntidadeDialog_00024SymFocus_focusLost__Ljava_awt_event_FocusEvent_2 00417930
 0002:00010978       _$EditarEntidadeDialog_00024SymFocus_focusGained__Ljava_awt_event_FocusEvent_2 00417978
 0002:000109C0       _$EditarEntidadeDialog_00024SymFocus__4init_5__LEditarEntidadeDialog_2 004179C0
 0002:000109E8       _$EditarFluxoDialog_abrir__ 004179E8
 0002:00010A08       _$EditarFluxoDialog_fechar__ 00417A08
 0002:00010A24       _$EditarFluxoDialog_ok__   00417A24
 0002:00010AD0       _$EditarFluxoDialog__4init_5__Ljava_awt_Frame_2LYourdon_Fluxo_2 00417AD0
 0002:00010BD8       _$EditarFluxoDialog__4init_5__Ljava_awt_Frame_2Z 00417BD8
 0002:00011084       _$EditarFluxoDialog_addNotify__ 00418084
 0002:00011200       _$EditarFluxoDialog__4init_5__Ljava_awt_Frame_2Ljava_lang_String_2Z 00418200
 0002:00011238       _$EditarFluxoDialog_setVisible__Z 00418238
 0002:000112D4       _$EditarFluxoDialog_Dialog1_1WindowClosing__Ljava_awt_event_WindowEvent_2 004182D4
 0002:000112F8       _$EditarFluxoDialog_buttonCancelar_1ActionPerformed__Ljava_awt_event_ActionEvent_2 004182F8
 0002:00011314       _$EditarFluxoDialog_buttonOk_1ActionPerformed__Ljava_awt_event_ActionEvent_2 00418314
 0002:0001134C       _$EditarFluxoDialog_EditarFluxoDialog_1WindowOpened__Ljava_awt_event_WindowEvent_2 0041834C
 0002:00011368       _$EditarFluxoDialog_buttonAjuda_1ActionPerformed__Ljava_awt_event_ActionEvent_2 00418368
 0002:00011428       _$EditarFluxoDialog_textFieldDescricao_1FocusGained__Ljava_awt_event_FocusEvent_2 00418428
 0002:0001144C       _$EditarFluxoDialog_textFieldDescricao_1FocusLost__Ljava_awt_event_FocusEvent_2 0041844C
 0002:00011478       _$EditarFluxoDialog_00024SymWindow_windowOpened__Ljava_awt_event_WindowEvent_2 00418478
 0002:000114BC       _$EditarFluxoDialog_00024SymWindow_windowClosing__Ljava_awt_event_WindowEvent_2 004184BC
 0002:00011500       _$EditarFluxoDialog_00024SymWindow__4init_5__LEditarFluxoDialog_2 00418500
 0002:00011528       _$EditarFluxoDialog_00024SymAction_actionPerformed__Ljava_awt_event_ActionEvent_2 00418528
 0002:000115BC       _$EditarFluxoDialog_00024SymAction__4init_5__LEditarFluxoDialog_2 004185BC
 0002:000115E4       _$EditarFluxoDialog_00024SymFocus_focusLost__Ljava_awt_event_FocusEvent_2 004185E4
 0002:0001162C       _$EditarFluxoDialog_00024SymFocus_focusGained__Ljava_awt_event_FocusEvent_2 0041862C
 0002:00011674       _$EditarFluxoDialog_00024SymFocus__4init_5__LEditarFluxoDialog_2 00418674
 0002:0001169C       _$Yourdon_ListaFluxos_remover__LYourdon_Fluxo_2 0041869C
 0002:000116C0       _$Yourdon_ListaFluxos__4init_5__ 004186C0
 0002:000116DC       _$Yourdon_ListaFluxos_adicionar__Ljava_lang_String_2 004186DC
 0002:00011700       _$Yourdon_ListaFluxos_adicionar__Ljava_lang_String_2I 00418700
 0002:00011744       _$Yourdon_Fluxo__4init_5__Ljava_lang_String_2I 00418744
 0002:00011770       _$Yourdon_Fluxo_setTipoFluxo__I 00418770
 0002:0001178C       _$Yourdon_Fluxo_getTipoFluxo__ 0041878C
 0002:000117A0       _$Yourdon_SimboloFluxo__4init_5__LYourdon_Fluxo_2LYourdon_SimboloMovel_2LYourdon_SimboloMovel_2Z 004187A0
 0002:00011854       _$Yourdon_SimboloFluxo_desenhar__Ljava_awt_Graphics_2 00418854
 0002:00011AD0       _$Yourdon_SimboloFluxo_desenharSeta__Ljava_awt_Graphics_2Ljava_awt_Point_2Ljava_awt_Point_2 00418AD0
 0002:0001205C       _$Yourdon_SimboloFluxo_selecionar__Z 0041905C
 0002:000120A8       _$Yourdon_SimboloFluxo__4clinit_5__ 004190A8
 0002:000120D4       _$Yourdon_ListaEventos_getEvento__LYourdon_Entidade_2I 004190D4
 0002:00012124       _$Yourdon_ListaEventos_remover__LYourdon_Evento_2 00419124
 0002:00012148       _$Yourdon_ListaEventos_getPrimeiro__LYourdon_Entidade_2 00419148
 0002:00012174       _$Yourdon_ListaEventos_getProximo__LYourdon_Entidade_2 00419174
 0002:00012234       _$Yourdon_ListaEventos_adicionar__LYourdon_Entidade_2Ljava_lang_String_2Ljava_lang_String_2Ljava_lang_String_2 00419234
 0002:0001227C       _$Yourdon_ListaEventos__4init_5__ 0041927C
 0002:00012298       _$EditarProcessoDialog_abrir__ 00419298
 0002:000122B8       _$EditarProcessoDialog_fechar__ 004192B8
 0002:000122D4       _$EditarProcessoDialog_ok__ 004192D4
 0002:000123A4       _$EditarProcessoDialog__4init_5__Ljava_awt_Frame_2LYourdon_Processo_2 004193A4
 0002:000124F4       _$EditarProcessoDialog__4init_5__Ljava_awt_Frame_2Z 004194F4
 0002:00012918       _$EditarProcessoDialog_addNotify__ 00419918
 0002:00012A94       _$EditarProcessoDialog__4init_5__Ljava_awt_Frame_2Ljava_lang_String_2Z 00419A94
 0002:00012ACC       _$EditarProcessoDialog_setVisible__Z 00419ACC
 0002:00012B68       _$EditarProcessoDialog_EditarProcessoDialog_1WindowClosing__Ljava_awt_event_WindowEvent_2 00419B68
 0002:00012B8C       _$EditarProcessoDialog_buttonCancelar_1ActionPerformed__Ljava_awt_event_ActionEvent_2 00419B8C
 0002:00012BA8       _$EditarProcessoDialog_buttonOk_1ActionPerformed__Ljava_awt_event_ActionEvent_2 00419BA8
 0002:00012BE0       _$EditarProcessoDialog_EditarProcessoDialog_1WindowOpened__Ljava_awt_event_WindowEvent_2 00419BE0
 0002:00012BFC       _$EditarProcessoDialog_buttonAjuda_1ActionPerformed__Ljava_awt_event_ActionEvent_2 00419BFC
 0002:00012CBC       _$EditarProcessoDialog_textFieldDescricao_1FocusGained__Ljava_awt_event_FocusEvent_2 00419CBC
 0002:00012CE0       _$EditarProcessoDialog_textFieldNumero_1FocusGained__Ljava_awt_event_FocusEvent_2 00419CE0
 0002:00012D04       _$EditarProcessoDialog_textFieldDescricao_1FocusLost__Ljava_awt_event_FocusEvent_2 00419D04
 0002:00012D30       _$EditarProcessoDialog_textFieldNumero_1FocusLost__Ljava_awt_event_FocusEvent_2 00419D30
 0002:00012D5C       _$EditarProcessoDialog_00024SymWindow_windowOpened__Ljava_awt_event_WindowEvent_2 00419D5C
 0002:00012DA0       _$EditarProcessoDialog_00024SymWindow_windowClosing__Ljava_awt_event_WindowEvent_2 00419DA0
 0002:00012DE4       _$EditarProcessoDialog_00024SymWindow__4init_5__LEditarProcessoDialog_2 00419DE4
 0002:00012E0C       _$EditarProcessoDialog_00024SymAction_actionPerformed__Ljava_awt_event_ActionEvent_2 00419E0C
 0002:00012EA0       _$EditarProcessoDialog_00024SymAction__4init_5__LEditarProcessoDialog_2 00419EA0
 0002:00012EC8       _$EditarProcessoDialog_00024SymFocus_focusLost__Ljava_awt_event_FocusEvent_2 00419EC8
 0002:00012F38       _$EditarProcessoDialog_00024SymFocus_focusGained__Ljava_awt_event_FocusEvent_2 00419F38
 0002:00012FA8       _$EditarProcessoDialog_00024SymFocus__4init_5__LEditarProcessoDialog_2 00419FA8
 0002:00012FD0       _$Yourdon_Evento__4init_5__LYourdon_Entidade_2Ljava_lang_String_2Ljava_lang_String_2Ljava_lang_String_2 00419FD0
 0002:00013008       _$Yourdon_Evento_setEstimulo__Ljava_lang_String_2 0041A008
 0002:00013024       _$Yourdon_Evento_getEstimulo__ 0041A024
 0002:00013038       _$Yourdon_Evento_setEntidade__LYourdon_Entidade_2 0041A038
 0002:00013054       _$Yourdon_Evento_getEntidade__ 0041A054
 0002:00013068       _$Yourdon_Evento_setResposta__Ljava_lang_String_2 0041A068
 0002:00013084       _$Yourdon_Evento_getResposta__ 0041A084
 0002:00013098       _$Yourdon_Processo_removerNumeroSubProcesso__I 0041A098
 0002:000130D0       _$Yourdon_Processo_inserirNumeroSubProcesso__I 0041A0D0
 0002:00013104       _$Yourdon_Processo_trocarNumeroSubProcesso__II 0041A104
 0002:00013198       _$Yourdon_Processo_getProximoNumero__ 0041A198
 0002:00013208       _$Yourdon_Processo_getNomeCompleto__ 0041A208
 0002:000132A0       _$Yourdon_Processo_getNumeroCompleto__ 0041A2A0
 0002:0001331C       _$Yourdon_Processo__4init_5__Ljava_lang_String_2 0041A31C
 0002:00013340       _$Yourdon_Processo__4init_5__LYourdon_Processo_2Ljava_lang_String_2 0041A340
 0002:000133BC       _$Yourdon_Processo_setNumero__I 0041A3BC
 0002:00013400       _$Yourdon_Processo_getNumero__ 0041A400
 0002:00013414       _$Yourdon_SimboloProcesso_contemPonto__Ljava_awt_Point_2 0041A414
 0002:000134A8       _$Yourdon_SimboloProcesso_getAresta__Ljava_awt_Point_2 0041A4A8
 0002:00013588       _$Yourdon_SimboloProcesso__4init_5__LYourdon_Processo_2Ljava_awt_Point_2Z 0041A588
 0002:000135B0       _$Yourdon_SimboloProcesso_desenhar__Ljava_awt_Graphics_2 0041A5B0
 0002:00013894       __fltused                  0041A894
 0002:00013898       __STI_fltused              0041A898
 0002:000138C8       ___floatfmt                0041A8C8
 0002:00013CA8       __SCANFLOAT                0041ACA8
 0002:00013F98       ___wfloatfmt               0041AF98
 0002:000143F0       __WSCANFLOAT               0041B3F0
 0002:0001470C       _strtod                    0041B70C
 0002:00014D7C       __isctype                  0041BD7C
 0002:00014E20       _tolower                   0041BE20
 0002:00014ED8       __FLOATCVT                 0041BED8
 0002:000150F0       _memcpy                    0041C0F0
 0002:000150F0       _memmove                   0041C0F0
 0002:0001527C       __DOSIGN                   0041C27C
 0002:000152B0       ___fpclassify_d            0041C2B0
 0002:00015308       _mbtowc                    0041C308
 0002:00015438       _wcstod                    0041C438
 0002:000154C4       __WFLOATCVT                0041C4C4
 0002:0001551C       __WDOSIGN                  0041C51C
 0002:00015550       dunnorm                    0041C550
 0002:00015574       dleft_justify              0041C574
 0002:00015588       dround                     0041C588
 0002:00015655       dnorm                      0041C655
 0002:0001570E       exception                  0041C70E
 0002:00015755       dget_dtype_pair            0041C755
 0002:000157E9       dget_dtype                 0041C7E9
 0002:0001583B       ___dtype                   0041C83B
 0002:00015895       __ULNGDBL@                 0041C895
 0002:000158AA       __DBLULNG@                 0041C8AA
 0002:00015998       funnorm                    0041C998
 0002:000159C3       fnorm                      0041C9C3
 0002:00015A3A       fleft_justify              0041CA3A
 0002:00015A4A       fright_justify             0041CA4A
 0002:00015A8E       fround                     0041CA8E
 0002:00015B9F       fget_dtype                 0041CB9F
 0002:00015BF0       __FCOMPP@                  0041CBF0
 0002:00015C0E       __FTEST0@                  0041CC0E
 0002:00015C2E       __FTEST@                   0041CC2E
 0002:00015C46       __DTST87@                  0041CC46
 0002:00015C4A       __87TOPSW@                 0041CC4A
 0002:00015C4F       __DBLTO87@                 0041CC4F
 0002:00015C5A       __DBLINT87@                0041CC5A
 0002:00015C7B       __DBLLNG87@                0041CC7B
 0002:00015C97       __FLTTO87@                 0041CC97
 0002:00015C9E       __status87                 0041CC9E
 0002:00015CA3       __clear87                  0041CCA3
 0002:00015CAC       __control87                0041CCAC
 0002:00015CD3       __fpreset                  0041CCD3
 0002:00015CE0       __8087_init                0041CCE0
 0002:00015D78       _fegetenv                  0041CD78
 0002:00015DCC       _fesetenv                  0041CDCC
 0002:00015E08       __SET_ERRNO                0041CE08
 0002:00015E30       _ldexp                     0041CE30
 0002:00015E40       _memicmp                   0041CE40
 0002:00015E94       __opti_stosd               0041CE94
 0002:00015EC8       _memset                    0041CEC8
 0002:00015F20       __LMUL@                    0041CF20
 0002:00015F78       __ULDIV@                   0041CF78
 0002:00015FF6       __LDIV@                    0041CFF6
 0002:0001602E       __LCMP@                    0041D02E
 0002:00016044       _free                      0041D044
 0002:00016090       _wcstombs                  0041D090
 0002:00016294       _malloc                    0041D294
 0002:000162EC       _wcslen                    0041D2EC
 0002:00016300       _mbstowcs                  0041D300
 0002:00016440       __FDIVP                    0041D440
 0002:0001645C       _FDIV_DETECT               0041D45C
 0002:000164B0       __thread_init              0041D4B0
 0002:000164E3       __thderr                   0041D4E3
 0002:000164ED       __getthreaddata            0041D4ED
 0002:00016532       ___threadid                0041D532
 0002:0001656A       __errno_set                0041D56A
 0002:0001657A       __errno                    0041D57A
 0002:00016583       ___doserrno                0041D583
 0002:0001658E       __FEEXCEPT                 0041D58E
 0002:000165A2       __FEROUND                  0041D5A2
 0002:000165AC       __InitSemaphoreSys         0041D5AC
 0002:00016618       __WaitSemaphore            0041D618
 0002:0001669C       __ReleaseSemaphore         0041D69C
 0002:00016724       ??0RTLMultiPool@@QAE@II@Z  0041D724
 0002:000167A8       ??1RTLMultiPool@@QAE@XZ    0041D7A8
 0002:000167AC       ?Alloc@RTLMultiPool@@QAEPAXK@Z 0041D7AC
 0002:000167FC       ?Realloc@RTLMultiPool@@QAEPAXPAXK@Z 0041D7FC
 0002:0001691C       ?SelectFree@RTLMultiPool@@AAEXPAX@Z 0041D91C
 0002:00016958       ?Free@RTLMultiPool@@QAEXPAX@Z 0041D958
 0002:00016970       ?CreateMainHeap@RTLMultiPool@@SAXXZ 0041D970
 0002:000169A0       ___SD?%___heap32_multpool_cpp2346133860_ 0041D9A0
 0002:000169B4       ___SI?%___heap32_multpool_cpp2346133860_ 0041D9B4
 0002:000169C4       _strcpy                    0041D9C4
 0002:00016A28       _strlen                    0041DA28
 0002:00016A88       _strchr                    0041DA88
 0002:00016C28       _fdiv_r                    0041DC28
 0002:00017146       _fdiv_m32                  0041E146
 0002:00017194       _fdiv_m64                  0041E194
 0002:000171E2       _fdiv_m16i                 0041E1E2
 0002:00017216       _fdiv_m32i                 0041E216
 0002:0001724A       _fdivr_m32                 0041E24A
 0002:00017298       _fdivr_m64                 0041E298
 0002:000172E6       _fdivr_m16i                0041E2E6
 0002:0001731A       _fdivr_m32i                0041E31A
 0002:0001736C       _calloc                    0041E36C
 0002:000173B0       __cinit                    0041E3B0
 0002:00017472       __dodtors                  0041E472
 0002:000174A2       __semerr                   0041E4A2
 0002:000174AC       __addthreadtableentry      0041E4AC
 0002:00017550       ___faterr                  0041E550
 0002:00017558       __init_rtl_critsection     0041E558
 0002:00017578       __delete_rtl_critsection   0041E578
 0002:000175A0       _strcat                    0041E5A0
 0002:000175E0       _itoa                      0041E5E0
 0002:00017607       ___itoa                    0041E607
 0002:0001763C       ??0RTLPool@@QAE@II@Z       0041E63C
 0002:000176A0       ?ThreadNewBlock@RTLPool@@AAEXXZ 0041E6A0
 0002:0001772C       ?Alloc@RTLPool@@QAEPAXXZ   0041E72C
 0002:0001775C       ?Free@RTLPool@@QAEXPAX@Z   0041E75C
 0002:00017770       ??0RTLHeap@@QAE@XZ         0041E770
 0002:0001778C       ?FixSize@RTLHeap@@AAEII@Z  0041E78C
 0002:000177C8       ?Alloc@RTLHeap@@QAEPAXK@Z  0041E7C8
 0002:0001782C       ?Realloc@RTLHeap@@QAEPAXPAXK@Z 0041E82C
 0002:00017900       ?MoreCore@RTLHeap@@AAEPAVRTLHeapBlock@@I@Z 0041E900
 0002:00017970       ?Free@RTLHeap@@QAEXPAX@Z   0041E970
 0002:000179C0       ??0RTLHeapBlockHeader@@QAE@I@Z 0041E9C0
 0002:000179DC       ??0RTLHeapBlock@@QAE@XZ    0041E9DC
 0002:000179F0       ??0RTLHeapBlock@@QAE@IAAV0@@Z 0041E9F0
 0002:00017A10       ?InsertAfter@RTLHeapBlock@@QAEXAAV1@@Z 0041EA10
 0002:00017A38       ?MergeBackward@RTLHeapBlock@@QAEHXZ 0041EA38
 0002:00017A78       ?MergeForward@RTLHeapBlock@@QAEHXZ 0041EA78
 0002:00017AC4       ?GetNext@RTLHeapBlock@@QAEAAV1@XZ 0041EAC4
 0002:00017ACC       ?Remove@RTLHeapBlock@@QAEXXZ 0041EACC
 0002:00017AE8       ?Claim@RTLHeapBlock@@QAEHI@Z 0041EAE8
 0002:00017B1C       ?Reclaim@RTLHeapBlock@@QAEHIAAV1@@Z 0041EB1C
 0002:00017B90       ?CreateMainHeap@RTLHeap@@SAXXZ 0041EB90
 0002:00017BB4       __fatexit                  0041EBB4
 0002:00017C00       ___rtl_init_cppexceptions  0041EC00
 0002:00017C18       ___rtl_clean_cppexceptions 0041EC18
 0002:00017C30       ___callve                  0041EC30
 0002:00017C44       __setenvp                  0041EC44
 0002:00017C60       __exit                     0041EC60
 0002:00017C6C       __win32_stderrmsg          0041EC6C
 0002:00017CB8       __win32_faterr             0041ECB8
 0002:00017CD4       _sbrk                      0041ECD4
 0002:00017D78       _mainCRTStartup            0041ED78
 0002:00017E44       __except_handler3          0041EE44
 0002:00017F24       ___xcfilter                0041EF24
 0002:0001801C       _exit                      0041F01C
 0002:000180C4       ?exitFromMain@@YAXXZ       0041F0C4
 0002:000180D3       _main                      0041F0D3
 0002:0001827C       ___build_environ           0041F27C
 0002:000184D0       __setargv                  0041F4D0
 0002:000187B0       ___initmbctype             0041F7B0
 0002:000187C4       __allocinit                0041F7C4
 0002:000187E0       __clearbss                 0041F7E0
 0002:00018814       __call_except_block        0041F814
 0002:00018830       __local_except_handler     0041F830
 0002:00018850       __global_unwind            0041F850
 0002:00018878       __local_unwind             0041F878
 0002:00018910       ___cc_array                0041F910
 0002:00018916       ___cc_handles              0041F916
 0002:0001891C       ___cc_handles_length       0041F91C
 0002:00018A75       __vedbtr_CreateServiceThread 0041FA75
 0002:00018B1E       ?_STD_VEDBTR_EndServiceThread@@YAXXZ 0041FB1E
 0002:00018B40       _realloc                   0041FB40
 0002:00018B9C       _strdup                    0041FB9C
 0002:00018BD4       __mbschr                   0041FBD4
 0002:00018D08       _findfirst                 0041FD08
 0002:00018D4C       _findnext                  0041FD4C
 0002:00018D60       __ismbblead                0041FD60
 0002:00018E90       __setmbcp                  0041FE90
 0002:00018FB4       __SET_NT_ERRNO             0041FFB4
 0002:00019048  Imp  _$java_awt_Rectangle__4init_5__IIII (SNJAWT11.DLL.$java_awt_Rectangle__4init_5__IIII)
 0002:0001904E  Imp  _$java_awt_Checkbox__4init_5__Ljava_lang_String_2Ljava_awt_CheckboxGroup_2Z (SNJAWT11.DLL.$java_awt_Checkbox__4init_5__Ljava_lang_String_2Ljava_awt_CheckboxGroup_2Z)
 0002:00019054  Imp  _$java_awt_CheckboxGroup__4init_5__ (SNJAWT11.DLL.$java_awt_CheckboxGroup__4init_5__)
 0002:0001905A  Imp  _$Classjava_awt_CheckboxGroup (SNJAWT11.DLL.$Classjava_awt_CheckboxGroup)
 0002:00019060  Imp  _$java_awt_event_MouseMotionAdapter__4init_5__ (SNJAWT11.DLL.$java_awt_event_MouseMotionAdapter__4init_5__)
 0002:00019066  Imp  _$Classjava_awt_event_MouseMotionAdapter (SNJAWT11.DLL.$Classjava_awt_event_MouseMotionAdapter)
 0002:0001906C  Imp  _$Classjava_awt_event_MouseMotionListener (SNJAWT11.DLL.$Classjava_awt_event_MouseMotionListener)
 0002:00019072  Imp  _$java_awt_event_MouseMotionAdapter_mouseMoved__Ljava_awt_event_MouseEvent_2 (SNJAWT11.DLL.$java_awt_event_MouseMotionAdapter_mouseMoved__Ljava_awt_event_MouseEvent_2)
 0002:00019078  Imp  _$java_awt_event_MouseAdapter_mouseClicked__Ljava_awt_event_MouseEvent_2 (SNJAWT11.DLL.$java_awt_event_MouseAdapter_mouseClicked__Ljava_awt_event_MouseEvent_2)
 0002:0001907E  Imp  _$java_awt_Canvas__4init_5__ (SNJAWT11.DLL.$java_awt_Canvas__4init_5__)
 0002:00019084  Imp  _$Classjava_awt_Canvas (SNJAWT11.DLL.$Classjava_awt_Canvas)
 0002:0001908A  Imp  _$java_awt_Component_postEvent__Ljava_awt_Event_2 (SNJAWT11.DLL.$java_awt_Component_postEvent__Ljava_awt_Event_2)
 0002:00019090  Imp  _$java_awt_Component_minimumSize__ (SNJAWT11.DLL.$java_awt_Component_minimumSize__)
 0002:00019096  Imp  _$java_awt_Component_getMinimumSize__ (SNJAWT11.DLL.$java_awt_Component_getMinimumSize__)
 0002:0001909C  Imp  _$java_awt_Component_preferredSize__ (SNJAWT11.DLL.$java_awt_Component_preferredSize__)
 0002:000190A2  Imp  _$java_awt_Component_getPreferredSize__ (SNJAWT11.DLL.$java_awt_Component_getPreferredSize__)
 0002:000190A8  Imp  _$java_awt_Component_getLocale__ (SNJAWT11.DLL.$java_awt_Component_getLocale__)
 0002:000190AE  Imp  _$java_awt_Component_show__ (SNJAWT11.DLL.$java_awt_Component_show__)
 0002:000190B4  Imp  _$java_awt_Component_isShowing__ (SNJAWT11.DLL.$java_awt_Component_isShowing__)
 0002:000190BA  Imp  _$java_awt_Component_getToolkit__ (SNJAWT11.DLL.$java_awt_Component_getToolkit__)
 0002:000190C0  Imp  _$java_awt_Component_print__Ljava_awt_Graphics_2 (SNJAWT11.DLL.$java_awt_Component_print__Ljava_awt_Graphics_2)
 0002:000190C6  Imp  _$java_awt_Component_invalidate__ (SNJAWT11.DLL.$java_awt_Component_invalidate__)
 0002:000190CC  Imp  _$java_awt_Component_validate__ (SNJAWT11.DLL.$java_awt_Component_validate__)
 0002:000190D2  Imp  _$java_awt_Component_layout__ (SNJAWT11.DLL.$java_awt_Component_layout__)
 0002:000190D8  Imp  _$java_awt_Component_doLayout__ (SNJAWT11.DLL.$java_awt_Component_doLayout__)
 0002:000190DE  Imp  _$java_awt_Component_getAlignmentY__ (SNJAWT11.DLL.$java_awt_Component_getAlignmentY__)
 0002:000190E4  Imp  _$java_awt_Component_getAlignmentX__ (SNJAWT11.DLL.$java_awt_Component_getAlignmentX__)
 0002:000190EA  Imp  _$java_awt_Component_getMaximumSize__ (SNJAWT11.DLL.$java_awt_Component_getMaximumSize__)
 0002:000190F0  Imp  _$java_awt_Canvas_postsOldMouseEvents__ (SNJAWT11.DLL.$java_awt_Canvas_postsOldMouseEvents__)
 0002:000190F6  Imp  _$java_awt_Component_processEvent__Ljava_awt_AWTEvent_2 (SNJAWT11.DLL.$java_awt_Component_processEvent__Ljava_awt_AWTEvent_2)
 0002:000190FC  Imp  _$java_awt_Component_eventEnabled__Ljava_awt_AWTEvent_2 (SNJAWT11.DLL.$java_awt_Component_eventEnabled__Ljava_awt_AWTEvent_2)
 0002:00019102  Imp  _$java_awt_Component_dispatchEventImpl__Ljava_awt_AWTEvent_2 (SNJAWT11.DLL.$java_awt_Component_dispatchEventImpl__Ljava_awt_AWTEvent_2)
 0002:00019108  Imp  _$java_awt_Component_deliverEvent__Ljava_awt_Event_2 (SNJAWT11.DLL.$java_awt_Component_deliverEvent__Ljava_awt_Event_2)
 0002:0001910E  Imp  _$java_awt_Component_getComponentAt__Ljava_awt_Point_2 (SNJAWT11.DLL.$java_awt_Component_getComponentAt__Ljava_awt_Point_2)
 0002:00019114  Imp  _$java_awt_Component_locate__II (SNJAWT11.DLL.$java_awt_Component_locate__II)
 0002:0001911A  Imp  _$java_awt_Component_getComponentAt__II (SNJAWT11.DLL.$java_awt_Component_getComponentAt__II)
 0002:00019120  Imp  _$java_awt_Component_readObject__Ljava_io_ObjectInputStream_2 (SNJAWT11.DLL.$java_awt_Component_readObject__Ljava_io_ObjectInputStream_2)
 0002:00019126  Imp  _$java_awt_Component_writeObject__Ljava_io_ObjectOutputStream_2 (SNJAWT11.DLL.$java_awt_Component_writeObject__Ljava_io_ObjectOutputStream_2)
 0002:0001912C  Imp  _$java_awt_Component_list__Ljava_io_PrintWriter_2I (SNJAWT11.DLL.$java_awt_Component_list__Ljava_io_PrintWriter_2I)
 0002:00019132  Imp  _$java_awt_Component_list__Ljava_io_PrintStream_2I (SNJAWT11.DLL.$java_awt_Component_list__Ljava_io_PrintStream_2I)
 0002:00019138  Imp  _$java_awt_Component_paramString__ (SNJAWT11.DLL.$java_awt_Component_paramString__)
 0002:0001913E  Imp  _$java_awt_Component_removeNotify__ (SNJAWT11.DLL.$java_awt_Component_removeNotify__)
 0002:00019144  Imp  _$java_awt_Canvas_addNotify__ (SNJAWT11.DLL.$java_awt_Canvas_addNotify__)
 0002:0001914A  Imp  _$Classjava_awt_event_ItemListener (SNJAWT11.DLL.$Classjava_awt_event_ItemListener)
 0002:00019150  Imp  _$java_awt_Choice__4init_5__ (SNJAWT11.DLL.$java_awt_Choice__4init_5__)
 0002:00019156  Imp  _$Classjava_awt_Choice (SNJAWT11.DLL.$Classjava_awt_Choice)
 0002:0001915C  Imp  _$java_awt_Checkbox__4init_5__Ljava_lang_String_2 (SNJAWT11.DLL.$java_awt_Checkbox__4init_5__Ljava_lang_String_2)
 0002:00019162  Imp  _$Classjava_awt_Checkbox (SNJAWT11.DLL.$Classjava_awt_Checkbox)
 0002:00019168  Imp  _$java_awt_Color_yellow (SNJAWT11.DLL.$java_awt_Color_yellow)
 0002:0001916E  Imp  _$java_awt_Color_white (SNJAWT11.DLL.$java_awt_Color_white)
 0002:00019174  Imp  _$java_awt_Color_lightGray (SNJAWT11.DLL.$java_awt_Color_lightGray)
 0002:0001917A  Imp  _$java_awt_Color_blue (SNJAWT11.DLL.$java_awt_Color_blue)
 0002:00019180  Imp  _$java_awt_Color_gray (SNJAWT11.DLL.$java_awt_Color_gray)
 0002:00019186  Imp  _$java_awt_Color_black (SNJAWT11.DLL.$java_awt_Color_black)
 0002:0001918C  Imp  _$Classjava_awt_Rectangle (SNJAWT11.DLL.$Classjava_awt_Rectangle)
 0002:00019192  Imp  _$java_awt_Rectangle__4init_5__Ljava_awt_Point_2Ljava_awt_Dimension_2 (SNJAWT11.DLL.$java_awt_Rectangle__4init_5__Ljava_awt_Point_2Ljava_awt_Dimension_2)
 0002:00019198  Imp  _$Classjava_awt_Point (SNJAWT11.DLL.$Classjava_awt_Point)
 0002:0001919E  Imp  _$java_awt_Point__4init_5__II (SNJAWT11.DLL.$java_awt_Point__4init_5__II)
 0002:000191A4  Imp  _$java_awt_Color__4init_5__III (SNJAWT11.DLL.$java_awt_Color__4init_5__III)
 0002:000191AA  Imp  _$Classjava_awt_Cursor (SNJAWT11.DLL.$Classjava_awt_Cursor)
 0002:000191B0  Imp  _$java_awt_Cursor__4init_5__I (SNJAWT11.DLL.$java_awt_Cursor__4init_5__I)
 0002:000191B6  Imp  _$java_awt_Dimension__4init_5__II (SNJAWT11.DLL.$java_awt_Dimension__4init_5__II)
 0002:000191BC  Imp  _$Classjava_awt_Dimension (SNJAWT11.DLL.$Classjava_awt_Dimension)
 0002:000191C2  Imp  _$java_awt_ScrollPane__4init_5__I (SNJAWT11.DLL.$java_awt_ScrollPane__4init_5__I)
 0002:000191C8  Imp  _$Classjava_awt_ScrollPane (SNJAWT11.DLL.$Classjava_awt_ScrollPane)
 0002:000191CE  Imp  _$java_awt_event_WindowEvent__4init_5__Ljava_awt_Window_2I (SNJAWT11.DLL.$java_awt_event_WindowEvent__4init_5__Ljava_awt_Window_2I)
 0002:000191D4  Imp  _$Classjava_awt_event_WindowEvent (SNJAWT11.DLL.$Classjava_awt_event_WindowEvent)
 0002:000191DA  Imp  _$java_awt_Toolkit_getSystemEventQueue__ (SNJAWT11.DLL.$java_awt_Toolkit_getSystemEventQueue__)
 0002:000191E0  Imp  _$java_awt_Toolkit_getDefaultToolkit__ (SNJAWT11.DLL.$java_awt_Toolkit_getDefaultToolkit__)
 0002:000191E6  Imp  _$Classjava_awt_Frame (SNJAWT11.DLL.$Classjava_awt_Frame)
 0002:000191EC  Imp  _$java_awt_Frame_remove__Ljava_awt_MenuComponent_2 (SNJAWT11.DLL.$java_awt_Frame_remove__Ljava_awt_MenuComponent_2)
 0002:000191F2  Imp  _$java_awt_Frame_getTitle__ (SNJAWT11.DLL.$java_awt_Frame_getTitle__)
 0002:000191F8  Imp  _$java_awt_Frame_removeOwnedWindow__Ljava_awt_Window_2 (SNJAWT11.DLL.$java_awt_Frame_removeOwnedWindow__Ljava_awt_Window_2)
 0002:000191FE  Imp  _$java_awt_Frame_addOwnedWindow__Ljava_awt_Window_2 (SNJAWT11.DLL.$java_awt_Frame_addOwnedWindow__Ljava_awt_Window_2)
 0002:00019204  Imp  _$java_awt_Frame_dispose__ (SNJAWT11.DLL.$java_awt_Frame_dispose__)
 0002:0001920A  Imp  _$java_awt_Frame_postProcessKeyEvent__Ljava_awt_event_KeyEvent_2 (SNJAWT11.DLL.$java_awt_Frame_postProcessKeyEvent__Ljava_awt_event_KeyEvent_2)
 0002:00019210  Imp  _$java_awt_Frame_readObject__Ljava_io_ObjectInputStream_2 (SNJAWT11.DLL.$java_awt_Frame_readObject__Ljava_io_ObjectInputStream_2)
 0002:00019216  Imp  _$java_awt_Frame_writeObject__Ljava_io_ObjectOutputStream_2 (SNJAWT11.DLL.$java_awt_Frame_writeObject__Ljava_io_ObjectOutputStream_2)
 0002:0001921C  Imp  _$java_awt_Frame_paramString__ (SNJAWT11.DLL.$java_awt_Frame_paramString__)
 0002:00019222  Imp  _$java_awt_Frame_setCursor__I (SNJAWT11.DLL.$java_awt_Frame_setCursor__I)
 0002:00019228  Imp  _$java_awt_Frame_setResizable__Z (SNJAWT11.DLL.$java_awt_Frame_setResizable__Z)
 0002:0001922E  Imp  _$java_awt_Frame_isResizable__ (SNJAWT11.DLL.$java_awt_Frame_isResizable__)
 0002:00019234  Imp  _$java_awt_Frame_setMenuBar__Ljava_awt_MenuBar_2 (SNJAWT11.DLL.$java_awt_Frame_setMenuBar__Ljava_awt_MenuBar_2)
 0002:0001923A  Imp  _$java_awt_Frame_getMenuBar__ (SNJAWT11.DLL.$java_awt_Frame_getMenuBar__)
 0002:00019240  Imp  _$java_awt_Frame_setIconImage__Ljava_awt_Image_2 (SNJAWT11.DLL.$java_awt_Frame_setIconImage__Ljava_awt_Image_2)
 0002:00019246  Imp  _$java_awt_Frame_getIconImage__ (SNJAWT11.DLL.$java_awt_Frame_getIconImage__)
 0002:0001924C  Imp  _$java_awt_Frame_setTitle__Ljava_lang_String_2 (SNJAWT11.DLL.$java_awt_Frame_setTitle__Ljava_lang_String_2)
 0002:00019252  Imp  _$java_awt_Frame_getCursorType__ (SNJAWT11.DLL.$java_awt_Frame_getCursorType__)
 0002:00019258  Imp  _$java_awt_Frame_addNotify__ (SNJAWT11.DLL.$java_awt_Frame_addNotify__)
 0002:0001925E  Imp  _$java_awt_FileDialog__4init_5__Ljava_awt_Frame_2 (SNJAWT11.DLL.$java_awt_FileDialog__4init_5__Ljava_awt_Frame_2)
 0002:00019264  Imp  _$java_awt_BorderLayout__4init_5__II (SNJAWT11.DLL.$java_awt_BorderLayout__4init_5__II)
 0002:0001926A  Imp  _$Classjava_awt_BorderLayout (SNJAWT11.DLL.$Classjava_awt_BorderLayout)
 0002:00019270  Imp  _$java_awt_Frame__4init_5__ (SNJAWT11.DLL.$java_awt_Frame__4init_5__)
 0002:00019276  Imp  _$Classjava_awt_Panel (SNJAWT11.DLL.$Classjava_awt_Panel)
 0002:0001927C  Imp  _$java_awt_Font__4init_5__Ljava_lang_String_2II (SNJAWT11.DLL.$java_awt_Font__4init_5__Ljava_lang_String_2II)
 0002:00019282  Imp  _$Classjava_awt_Font (SNJAWT11.DLL.$Classjava_awt_Font)
 0002:00019288  Imp  _$Classjava_awt_MenuShortcut (SNJAWT11.DLL.$Classjava_awt_MenuShortcut)
 0002:0001928E  Imp  _$java_awt_MenuItem__4init_5__Ljava_lang_String_2 (SNJAWT11.DLL.$java_awt_MenuItem__4init_5__Ljava_lang_String_2)
 0002:00019294  Imp  _$Classjava_awt_MenuItem (SNJAWT11.DLL.$Classjava_awt_MenuItem)
 0002:0001929A  Imp  _$java_awt_Menu__4init_5__Ljava_lang_String_2 (SNJAWT11.DLL.$java_awt_Menu__4init_5__Ljava_lang_String_2)
 0002:000192A0  Imp  _$Classjava_awt_Menu (SNJAWT11.DLL.$Classjava_awt_Menu)
 0002:000192A6  Imp  _$java_awt_MenuBar__4init_5__ (SNJAWT11.DLL.$java_awt_MenuBar__4init_5__)
 0002:000192AC  Imp  _$Classjava_awt_MenuBar (SNJAWT11.DLL.$Classjava_awt_MenuBar)
 0002:000192B2  Imp  _$java_awt_Panel__4init_5__ (SNJAWT11.DLL.$java_awt_Panel__4init_5__)
 0002:000192B8  Imp  _$java_awt_MenuShortcut__4init_5__IZ (SNJAWT11.DLL.$java_awt_MenuShortcut__4init_5__IZ)
 0002:000192BE  Imp  _$java_awt_FileDialog__4init_5__Ljava_awt_Frame_2Ljava_lang_String_2I (SNJAWT11.DLL.$java_awt_FileDialog__4init_5__Ljava_awt_Frame_2Ljava_lang_String_2I)
 0002:000192C4  Imp  _$Classjava_awt_FileDialog (SNJAWT11.DLL.$Classjava_awt_FileDialog)
 0002:000192CA  Imp  _$java_awt_Label__4init_5__Ljava_lang_String_2I (SNJAWT11.DLL.$java_awt_Label__4init_5__Ljava_lang_String_2I)
 0002:000192D0  Imp  _$java_awt_TextArea__4init_5__Ljava_lang_String_2III (SNJAWT11.DLL.$java_awt_TextArea__4init_5__Ljava_lang_String_2III)
 0002:000192D6  Imp  _$Classjava_awt_TextArea (SNJAWT11.DLL.$Classjava_awt_TextArea)
 0002:000192DC  Imp  _$Classjava_awt_Window (SNJAWT11.DLL.$Classjava_awt_Window)
 0002:000192E2  Imp  _$java_awt_Container_paramString__ (SNJAWT11.DLL.$java_awt_Container_paramString__)
 0002:000192E8  Imp  _$java_awt_Window_show__ (SNJAWT11.DLL.$java_awt_Window_show__)
 0002:000192EE  Imp  _$java_awt_Window_addNotify__ (SNJAWT11.DLL.$java_awt_Window_addNotify__)
 0002:000192F4  Imp  _$java_awt_Window__4init_5__Ljava_awt_Frame_2 (SNJAWT11.DLL.$java_awt_Window__4init_5__Ljava_awt_Frame_2)
 0002:000192FA  Imp  _$java_awt_event_MouseAdapter__4init_5__ (SNJAWT11.DLL.$java_awt_event_MouseAdapter__4init_5__)
 0002:00019300  Imp  _$Classjava_awt_event_MouseAdapter (SNJAWT11.DLL.$Classjava_awt_event_MouseAdapter)
 0002:00019306  Imp  _$Classjava_awt_event_MouseListener (SNJAWT11.DLL.$Classjava_awt_event_MouseListener)
 0002:0001930C  Imp  _$java_awt_event_MouseAdapter_mousePressed__Ljava_awt_event_MouseEvent_2 (SNJAWT11.DLL.$java_awt_event_MouseAdapter_mousePressed__Ljava_awt_event_MouseEvent_2)
 0002:00019312  Imp  _$java_awt_event_MouseAdapter_mouseReleased__Ljava_awt_event_MouseEvent_2 (SNJAWT11.DLL.$java_awt_event_MouseAdapter_mouseReleased__Ljava_awt_event_MouseEvent_2)
 0002:00019318  Imp  _$java_awt_event_MouseAdapter_mouseEntered__Ljava_awt_event_MouseEvent_2 (SNJAWT11.DLL.$java_awt_event_MouseAdapter_mouseEntered__Ljava_awt_event_MouseEvent_2)
 0002:0001931E  Imp  _$java_awt_event_MouseAdapter_mouseExited__Ljava_awt_event_MouseEvent_2 (SNJAWT11.DLL.$java_awt_event_MouseAdapter_mouseExited__Ljava_awt_event_MouseEvent_2)
 0002:00019324  Imp  _$java_awt_event_WindowAdapter_windowOpened__Ljava_awt_event_WindowEvent_2 (SNJAWT11.DLL.$java_awt_event_WindowAdapter_windowOpened__Ljava_awt_event_WindowEvent_2)
 0002:0001932A  Imp  _$java_awt_List__4init_5__I (SNJAWT11.DLL.$java_awt_List__4init_5__I)
 0002:00019330  Imp  _$Classjava_awt_List (SNJAWT11.DLL.$Classjava_awt_List)
 0002:00019336  Imp  _$java_awt_event_FocusAdapter__4init_5__ (SNJAWT11.DLL.$java_awt_event_FocusAdapter__4init_5__)
 0002:0001933C  Imp  _$Classjava_awt_event_FocusAdapter (SNJAWT11.DLL.$Classjava_awt_event_FocusAdapter)
 0002:00019342  Imp  _$Classjava_awt_event_FocusListener (SNJAWT11.DLL.$Classjava_awt_event_FocusListener)
 0002:00019348  Imp  _$Classjava_awt_event_ActionListener (SNJAWT11.DLL.$Classjava_awt_event_ActionListener)
 0002:0001934E  Imp  _$java_awt_event_WindowAdapter__4init_5__ (SNJAWT11.DLL.$java_awt_event_WindowAdapter__4init_5__)
 0002:00019354  Imp  _$Classjava_awt_event_WindowAdapter (SNJAWT11.DLL.$Classjava_awt_event_WindowAdapter)
 0002:0001935A  Imp  _$Classjava_awt_event_WindowListener (SNJAWT11.DLL.$Classjava_awt_event_WindowListener)
 0002:00019360  Imp  _$java_awt_event_WindowAdapter_windowClosed__Ljava_awt_event_WindowEvent_2 (SNJAWT11.DLL.$java_awt_event_WindowAdapter_windowClosed__Ljava_awt_event_WindowEvent_2)
 0002:00019366  Imp  _$java_awt_event_WindowAdapter_windowIconified__Ljava_awt_event_WindowEvent_2 (SNJAWT11.DLL.$java_awt_event_WindowAdapter_windowIconified__Ljava_awt_event_WindowEvent_2)
 0002:0001936C  Imp  _$java_awt_event_WindowAdapter_windowDeiconified__Ljava_awt_event_WindowEvent_2 (SNJAWT11.DLL.$java_awt_event_WindowAdapter_windowDeiconified__Ljava_awt_event_WindowEvent_2)
 0002:00019372  Imp  _$java_awt_event_WindowAdapter_windowActivated__Ljava_awt_event_WindowEvent_2 (SNJAWT11.DLL.$java_awt_event_WindowAdapter_windowActivated__Ljava_awt_event_WindowEvent_2)
 0002:00019378  Imp  _$java_awt_event_WindowAdapter_windowDeactivated__Ljava_awt_event_WindowEvent_2 (SNJAWT11.DLL.$java_awt_event_WindowAdapter_windowDeactivated__Ljava_awt_event_WindowEvent_2)
 0002:0001937E  Imp  _$Classjava_awt_Dialog (SNJAWT11.DLL.$Classjava_awt_Dialog)
 0002:00019384  Imp  _$Classjava_awt_image_ImageObserver (SNJAWT11.DLL.$Classjava_awt_image_ImageObserver)
 0002:0001938A  Imp  _$Classjava_awt_MenuContainer (SNJAWT11.DLL.$Classjava_awt_MenuContainer)
 0002:00019390  Imp  _$java_awt_Component_toString__ (SNJAWT11.DLL.$java_awt_Component_toString__)
 0002:00019396  Imp  _$java_awt_Component_getFont__ (SNJAWT11.DLL.$java_awt_Component_getFont__)
 0002:0001939C  Imp  _$java_awt_Component_imageUpdate__Ljava_awt_Image_2IIIII (SNJAWT11.DLL.$java_awt_Component_imageUpdate__Ljava_awt_Image_2IIIII)
 0002:000193A2  Imp  _$java_awt_Window_postEvent__Ljava_awt_Event_2 (SNJAWT11.DLL.$java_awt_Window_postEvent__Ljava_awt_Event_2)
 0002:000193A8  Imp  _$java_awt_Component_remove__Ljava_awt_MenuComponent_2 (SNJAWT11.DLL.$java_awt_Component_remove__Ljava_awt_MenuComponent_2)
 0002:000193AE  Imp  _$java_awt_Component_isVisible__ (SNJAWT11.DLL.$java_awt_Component_isVisible__)
 0002:000193B4  Imp  _$java_awt_Component_isValid__ (SNJAWT11.DLL.$java_awt_Component_isValid__)
 0002:000193BA  Imp  _$java_awt_Window_getToolkit__ (SNJAWT11.DLL.$java_awt_Window_getToolkit__)
 0002:000193C0  Imp  _$java_awt_Component_getTreeLock__ (SNJAWT11.DLL.$java_awt_Component_getTreeLock__)
 0002:000193C6  Imp  _$java_awt_Component_getPeer__ (SNJAWT11.DLL.$java_awt_Component_getPeer__)
 0002:000193CC  Imp  _$java_awt_Component_getParent__ (SNJAWT11.DLL.$java_awt_Component_getParent__)
 0002:000193D2  Imp  _$java_awt_Component_setName__Ljava_lang_String_2 (SNJAWT11.DLL.$java_awt_Component_setName__Ljava_lang_String_2)
 0002:000193D8  Imp  _$java_awt_Component_getName__ (SNJAWT11.DLL.$java_awt_Component_getName__)
 0002:000193DE  Imp  _$java_awt_Component_show__Z (SNJAWT11.DLL.$java_awt_Component_show__Z)
 0002:000193E4  Imp  _$java_awt_Dialog_show__ (SNJAWT11.DLL.$java_awt_Dialog_show__)
 0002:000193EA  Imp  _$java_awt_Component_disable__ (SNJAWT11.DLL.$java_awt_Component_disable__)
 0002:000193F0  Imp  _$java_awt_Component_enable__Z (SNJAWT11.DLL.$java_awt_Component_enable__Z)
 0002:000193F6  Imp  _$java_awt_Component_enable__ (SNJAWT11.DLL.$java_awt_Component_enable__)
 0002:000193FC  Imp  _$java_awt_Component_setEnabled__Z (SNJAWT11.DLL.$java_awt_Component_setEnabled__Z)
 0002:00019402  Imp  _$java_awt_Component_isEnabled__ (SNJAWT11.DLL.$java_awt_Component_isEnabled__)
 0002:00019408  Imp  _$java_awt_Window_isShowing__ (SNJAWT11.DLL.$java_awt_Window_isShowing__)
 0002:0001940E  Imp  _$java_awt_Component_setLocale__Ljava_util_Locale_2 (SNJAWT11.DLL.$java_awt_Component_setLocale__Ljava_util_Locale_2)
 0002:00019414  Imp  _$java_awt_Window_getLocale__ (SNJAWT11.DLL.$java_awt_Window_getLocale__)
 0002:0001941A  Imp  _$java_awt_Component_setFont__Ljava_awt_Font_2 (SNJAWT11.DLL.$java_awt_Component_setFont__Ljava_awt_Font_2)
 0002:00019420  Imp  _$java_awt_Component_setBackground__Ljava_awt_Color_2 (SNJAWT11.DLL.$java_awt_Component_setBackground__Ljava_awt_Color_2)
 0002:00019426  Imp  _$java_awt_Component_getBackground__ (SNJAWT11.DLL.$java_awt_Component_getBackground__)
 0002:0001942C  Imp  _$java_awt_Component_setForeground__Ljava_awt_Color_2 (SNJAWT11.DLL.$java_awt_Component_setForeground__Ljava_awt_Color_2)
 0002:00019432  Imp  _$java_awt_Component_getForeground__ (SNJAWT11.DLL.$java_awt_Component_getForeground__)
 0002:00019438  Imp  _$java_awt_Component_hide__ (SNJAWT11.DLL.$java_awt_Component_hide__)
 0002:0001943E  Imp  _$java_awt_Component_getSize__ (SNJAWT11.DLL.$java_awt_Component_getSize__)
 0002:00019444  Imp  _$java_awt_Component_setLocation__Ljava_awt_Point_2 (SNJAWT11.DLL.$java_awt_Component_setLocation__Ljava_awt_Point_2)
 0002:0001944A  Imp  _$java_awt_Component_move__II (SNJAWT11.DLL.$java_awt_Component_move__II)
 0002:00019450  Imp  _$java_awt_Component_setLocation__II (SNJAWT11.DLL.$java_awt_Component_setLocation__II)
 0002:00019456  Imp  _$java_awt_Component_location__ (SNJAWT11.DLL.$java_awt_Component_location__)
 0002:0001945C  Imp  _$java_awt_Component_getLocationOnScreen__ (SNJAWT11.DLL.$java_awt_Component_getLocationOnScreen__)
 0002:00019462  Imp  _$java_awt_Component_getLocation__ (SNJAWT11.DLL.$java_awt_Component_getLocation__)
 0002:00019468  Imp  _$java_awt_Component_getColorModel__ (SNJAWT11.DLL.$java_awt_Component_getColorModel__)
 0002:0001946E  Imp  _$java_awt_Component_setBounds__IIII (SNJAWT11.DLL.$java_awt_Component_setBounds__IIII)
 0002:00019474  Imp  _$java_awt_Component_bounds__ (SNJAWT11.DLL.$java_awt_Component_bounds__)
 0002:0001947A  Imp  _$java_awt_Component_getBounds__ (SNJAWT11.DLL.$java_awt_Component_getBounds__)
 0002:00019480  Imp  _$java_awt_Component_resize__Ljava_awt_Dimension_2 (SNJAWT11.DLL.$java_awt_Component_resize__Ljava_awt_Dimension_2)
 0002:00019486  Imp  _$java_awt_Component_setSize__Ljava_awt_Dimension_2 (SNJAWT11.DLL.$java_awt_Component_setSize__Ljava_awt_Dimension_2)
 0002:0001948C  Imp  _$java_awt_Component_resize__II (SNJAWT11.DLL.$java_awt_Component_resize__II)
 0002:00019492  Imp  _$java_awt_Component_setSize__II (SNJAWT11.DLL.$java_awt_Component_setSize__II)
 0002:00019498  Imp  _$java_awt_Component_size__ (SNJAWT11.DLL.$java_awt_Component_size__)
 0002:0001949E  Imp  _$java_awt_Container_getAlignmentX__ (SNJAWT11.DLL.$java_awt_Container_getAlignmentX__)
 0002:000194A4  Imp  _$java_awt_Container_getMaximumSize__ (SNJAWT11.DLL.$java_awt_Container_getMaximumSize__)
 0002:000194AA  Imp  _$java_awt_Container_minimumSize__ (SNJAWT11.DLL.$java_awt_Container_minimumSize__)
 0002:000194B0  Imp  _$java_awt_Container_getMinimumSize__ (SNJAWT11.DLL.$java_awt_Container_getMinimumSize__)
 0002:000194B6  Imp  _$java_awt_Container_preferredSize__ (SNJAWT11.DLL.$java_awt_Container_preferredSize__)
 0002:000194BC  Imp  _$java_awt_Container_getPreferredSize__ (SNJAWT11.DLL.$java_awt_Container_getPreferredSize__)
 0002:000194C2  Imp  _$java_awt_Component_setBounds__Ljava_awt_Rectangle_2 (SNJAWT11.DLL.$java_awt_Component_setBounds__Ljava_awt_Rectangle_2)
 0002:000194C8  Imp  _$java_awt_Component_reshape__IIII (SNJAWT11.DLL.$java_awt_Component_reshape__IIII)
 0002:000194CE  Imp  _$java_awt_Component_setCursor__Ljava_awt_Cursor_2 (SNJAWT11.DLL.$java_awt_Component_setCursor__Ljava_awt_Cursor_2)
 0002:000194D4  Imp  _$java_awt_Component_getFontMetrics__Ljava_awt_Font_2 (SNJAWT11.DLL.$java_awt_Component_getFontMetrics__Ljava_awt_Font_2)
 0002:000194DA  Imp  _$java_awt_Component_getGraphics__ (SNJAWT11.DLL.$java_awt_Component_getGraphics__)
 0002:000194E0  Imp  _$java_awt_Container_invalidate__ (SNJAWT11.DLL.$java_awt_Container_invalidate__)
 0002:000194E6  Imp  _$java_awt_Container_validate__ (SNJAWT11.DLL.$java_awt_Container_validate__)
 0002:000194EC  Imp  _$java_awt_Container_layout__ (SNJAWT11.DLL.$java_awt_Container_layout__)
 0002:000194F2  Imp  _$java_awt_Container_doLayout__ (SNJAWT11.DLL.$java_awt_Container_doLayout__)
 0002:000194F8  Imp  _$java_awt_Container_getAlignmentY__ (SNJAWT11.DLL.$java_awt_Container_getAlignmentY__)
 0002:000194FE  Imp  _$java_awt_Component_repaint__JIIII (SNJAWT11.DLL.$java_awt_Component_repaint__JIIII)
 0002:00019504  Imp  _$java_awt_Component_repaint__IIII (SNJAWT11.DLL.$java_awt_Component_repaint__IIII)
 0002:0001950A  Imp  _$java_awt_Component_repaint__J (SNJAWT11.DLL.$java_awt_Component_repaint__J)
 0002:00019510  Imp  _$java_awt_Component_repaint__ (SNJAWT11.DLL.$java_awt_Component_repaint__)
 0002:00019516  Imp  _$java_awt_Component_paintAll__Ljava_awt_Graphics_2 (SNJAWT11.DLL.$java_awt_Component_paintAll__Ljava_awt_Graphics_2)
 0002:0001951C  Imp  _$java_awt_Container_update__Ljava_awt_Graphics_2 (SNJAWT11.DLL.$java_awt_Container_update__Ljava_awt_Graphics_2)
 0002:00019522  Imp  _$java_awt_Container_paint__Ljava_awt_Graphics_2 (SNJAWT11.DLL.$java_awt_Container_paint__Ljava_awt_Graphics_2)
 0002:00019528  Imp  _$java_awt_Component_getCursor__ (SNJAWT11.DLL.$java_awt_Component_getCursor__)
 0002:0001952E  Imp  _$java_awt_Component_checkImage__Ljava_awt_Image_2IILjava_awt_image_ImageObserver_2 (SNJAWT11.DLL.$java_awt_Component_checkImage__Ljava_awt_Image_2IILjava_awt_image_ImageObserver_2)
 0002:00019534  Imp  _$java_awt_Component_checkImage__Ljava_awt_Image_2Ljava_awt_image_ImageObserver_2 (SNJAWT11.DLL.$java_awt_Component_checkImage__Ljava_awt_Image_2Ljava_awt_image_ImageObserver_2)
 0002:0001953A  Imp  _$java_awt_Component_prepareImage__Ljava_awt_Image_2IILjava_awt_image_ImageObserver_2 (SNJAWT11.DLL.$java_awt_Component_prepareImage__Ljava_awt_Image_2IILjava_awt_image_ImageObserver_2)
 0002:00019540  Imp  _$java_awt_Component_prepareImage__Ljava_awt_Image_2Ljava_awt_image_ImageObserver_2 (SNJAWT11.DLL.$java_awt_Component_prepareImage__Ljava_awt_Image_2Ljava_awt_image_ImageObserver_2)
 0002:00019546  Imp  _$java_awt_Component_createImage__II (SNJAWT11.DLL.$java_awt_Component_createImage__II)
 0002:0001954C  Imp  _$java_awt_Component_createImage__Ljava_awt_image_ImageProducer_2 (SNJAWT11.DLL.$java_awt_Component_createImage__Ljava_awt_image_ImageProducer_2)
 0002:00019552  Imp  _$java_awt_Component_printAll__Ljava_awt_Graphics_2 (SNJAWT11.DLL.$java_awt_Component_printAll__Ljava_awt_Graphics_2)
 0002:00019558  Imp  _$java_awt_Container_print__Ljava_awt_Graphics_2 (SNJAWT11.DLL.$java_awt_Container_print__Ljava_awt_Graphics_2)
 0002:0001955E  Imp  _$java_awt_Component_dispatchEvent__Ljava_awt_AWTEvent_2 (SNJAWT11.DLL.$java_awt_Component_dispatchEvent__Ljava_awt_AWTEvent_2)
 0002:00019564  Imp  _$java_awt_Container_deliverEvent__Ljava_awt_Event_2 (SNJAWT11.DLL.$java_awt_Container_deliverEvent__Ljava_awt_Event_2)
 0002:0001956A  Imp  _$java_awt_Container_getComponentAt__Ljava_awt_Point_2 (SNJAWT11.DLL.$java_awt_Container_getComponentAt__Ljava_awt_Point_2)
 0002:00019570  Imp  _$java_awt_Container_locate__II (SNJAWT11.DLL.$java_awt_Container_locate__II)
 0002:00019576  Imp  _$java_awt_Container_getComponentAt__II (SNJAWT11.DLL.$java_awt_Container_getComponentAt__II)
 0002:0001957C  Imp  _$java_awt_Component_contains__Ljava_awt_Point_2 (SNJAWT11.DLL.$java_awt_Component_contains__Ljava_awt_Point_2)
 0002:00019582  Imp  _$java_awt_Component_inside__II (SNJAWT11.DLL.$java_awt_Component_inside__II)
 0002:00019588  Imp  _$java_awt_Component_contains__II (SNJAWT11.DLL.$java_awt_Component_contains__II)
 0002:0001958E  Imp  _$java_awt_Component_removeKeyListener__Ljava_awt_event_KeyListener_2 (SNJAWT11.DLL.$java_awt_Component_removeKeyListener__Ljava_awt_event_KeyListener_2)
 0002:00019594  Imp  _$java_awt_Component_addKeyListener__Ljava_awt_event_KeyListener_2 (SNJAWT11.DLL.$java_awt_Component_addKeyListener__Ljava_awt_event_KeyListener_2)
 0002:0001959A  Imp  _$java_awt_Component_removeFocusListener__Ljava_awt_event_FocusListener_2 (SNJAWT11.DLL.$java_awt_Component_removeFocusListener__Ljava_awt_event_FocusListener_2)
 0002:000195A0  Imp  _$java_awt_Component_addFocusListener__Ljava_awt_event_FocusListener_2 (SNJAWT11.DLL.$java_awt_Component_addFocusListener__Ljava_awt_event_FocusListener_2)
 0002:000195A6  Imp  _$java_awt_Component_removeComponentListener__Ljava_awt_event_ComponentListener_2 (SNJAWT11.DLL.$java_awt_Component_removeComponentListener__Ljava_awt_event_ComponentListener_2)
 0002:000195AC  Imp  _$java_awt_Component_addComponentListener__Ljava_awt_event_ComponentListener_2 (SNJAWT11.DLL.$java_awt_Component_addComponentListener__Ljava_awt_event_ComponentListener_2)
 0002:000195B2  Imp  _$java_awt_Window_eventEnabled__Ljava_awt_AWTEvent_2 (SNJAWT11.DLL.$java_awt_Window_eventEnabled__Ljava_awt_AWTEvent_2)
 0002:000195B8  Imp  _$java_awt_Window_dispatchEventImpl__Ljava_awt_AWTEvent_2 (SNJAWT11.DLL.$java_awt_Window_dispatchEventImpl__Ljava_awt_AWTEvent_2)
 0002:000195BE  Imp  _$java_awt_Component_processComponentEvent__Ljava_awt_event_ComponentEvent_2 (SNJAWT11.DLL.$java_awt_Component_processComponentEvent__Ljava_awt_event_ComponentEvent_2)
 0002:000195C4  Imp  _$java_awt_Window_processEvent__Ljava_awt_AWTEvent_2 (SNJAWT11.DLL.$java_awt_Window_processEvent__Ljava_awt_AWTEvent_2)
 0002:000195CA  Imp  _$java_awt_Component_disableEvents__J (SNJAWT11.DLL.$java_awt_Component_disableEvents__J)
 0002:000195D0  Imp  _$java_awt_Component_enableEvents__J (SNJAWT11.DLL.$java_awt_Component_enableEvents__J)
 0002:000195D6  Imp  _$java_awt_Component_removeMouseMotionListener__Ljava_awt_event_MouseMotionListener_2 (SNJAWT11.DLL.$java_awt_Component_removeMouseMotionListener__Ljava_awt_event_MouseMotionListener_2)
 0002:000195DC  Imp  _$java_awt_Component_addMouseMotionListener__Ljava_awt_event_MouseMotionListener_2 (SNJAWT11.DLL.$java_awt_Component_addMouseMotionListener__Ljava_awt_event_MouseMotionListener_2)
 0002:000195E2  Imp  _$java_awt_Component_removeMouseListener__Ljava_awt_event_MouseListener_2 (SNJAWT11.DLL.$java_awt_Component_removeMouseListener__Ljava_awt_event_MouseListener_2)
 0002:000195E8  Imp  _$java_awt_Component_addMouseListener__Ljava_awt_event_MouseListener_2 (SNJAWT11.DLL.$java_awt_Component_addMouseListener__Ljava_awt_event_MouseListener_2)
 0002:000195EE  Imp  _$java_awt_Component_mouseDrag__Ljava_awt_Event_2II (SNJAWT11.DLL.$java_awt_Component_mouseDrag__Ljava_awt_Event_2II)
 0002:000195F4  Imp  _$java_awt_Component_mouseDown__Ljava_awt_Event_2II (SNJAWT11.DLL.$java_awt_Component_mouseDown__Ljava_awt_Event_2II)
 0002:000195FA  Imp  _$java_awt_Component_handleEvent__Ljava_awt_Event_2 (SNJAWT11.DLL.$java_awt_Component_handleEvent__Ljava_awt_Event_2)
 0002:00019600  Imp  _$java_awt_Container_postsOldMouseEvents__ (SNJAWT11.DLL.$java_awt_Container_postsOldMouseEvents__)
 0002:00019606  Imp  _$java_awt_Component_processMouseMotionEvent__Ljava_awt_event_MouseEvent_2 (SNJAWT11.DLL.$java_awt_Component_processMouseMotionEvent__Ljava_awt_event_MouseEvent_2)
 0002:0001960C  Imp  _$java_awt_Component_processMouseEvent__Ljava_awt_event_MouseEvent_2 (SNJAWT11.DLL.$java_awt_Component_processMouseEvent__Ljava_awt_event_MouseEvent_2)
 0002:00019612  Imp  _$java_awt_Component_processKeyEvent__Ljava_awt_event_KeyEvent_2 (SNJAWT11.DLL.$java_awt_Component_processKeyEvent__Ljava_awt_event_KeyEvent_2)
 0002:00019618  Imp  _$java_awt_Component_processFocusEvent__Ljava_awt_event_FocusEvent_2 (SNJAWT11.DLL.$java_awt_Component_processFocusEvent__Ljava_awt_event_FocusEvent_2)
 0002:0001961E  Imp  _$java_awt_Container_removeNotify__ (SNJAWT11.DLL.$java_awt_Container_removeNotify__)
 0002:00019624  Imp  _$java_awt_Component_action__Ljava_awt_Event_2Ljava_lang_Object_2 (SNJAWT11.DLL.$java_awt_Component_action__Ljava_awt_Event_2Ljava_lang_Object_2)
 0002:0001962A  Imp  _$java_awt_Component_keyUp__Ljava_awt_Event_2I (SNJAWT11.DLL.$java_awt_Component_keyUp__Ljava_awt_Event_2I)
 0002:00019630  Imp  _$java_awt_Component_keyDown__Ljava_awt_Event_2I (SNJAWT11.DLL.$java_awt_Component_keyDown__Ljava_awt_Event_2I)
 0002:00019636  Imp  _$java_awt_Component_mouseExit__Ljava_awt_Event_2II (SNJAWT11.DLL.$java_awt_Component_mouseExit__Ljava_awt_Event_2II)
 0002:0001963C  Imp  _$java_awt_Component_mouseEnter__Ljava_awt_Event_2II (SNJAWT11.DLL.$java_awt_Component_mouseEnter__Ljava_awt_Event_2II)
 0002:00019642  Imp  _$java_awt_Component_mouseMove__Ljava_awt_Event_2II (SNJAWT11.DLL.$java_awt_Component_mouseMove__Ljava_awt_Event_2II)
 0002:00019648  Imp  _$java_awt_Component_mouseUp__Ljava_awt_Event_2II (SNJAWT11.DLL.$java_awt_Component_mouseUp__Ljava_awt_Event_2II)
 0002:0001964E  Imp  _$java_awt_Dialog_paramString__ (SNJAWT11.DLL.$java_awt_Dialog_paramString__)
 0002:00019654  Imp  _$java_awt_Component_add__Ljava_awt_PopupMenu_2 (SNJAWT11.DLL.$java_awt_Component_add__Ljava_awt_PopupMenu_2)
 0002:0001965A  Imp  _$java_awt_Component_nextFocus__ (SNJAWT11.DLL.$java_awt_Component_nextFocus__)
 0002:00019660  Imp  _$java_awt_Component_transferFocus__ (SNJAWT11.DLL.$java_awt_Component_transferFocus__)
 0002:00019666  Imp  _$java_awt_Component_requestFocus__ (SNJAWT11.DLL.$java_awt_Component_requestFocus__)
 0002:0001966C  Imp  _$java_awt_Component_isFocusTraversable__ (SNJAWT11.DLL.$java_awt_Component_isFocusTraversable__)
 0002:00019672  Imp  _$java_awt_Component_lostFocus__Ljava_awt_Event_2Ljava_lang_Object_2 (SNJAWT11.DLL.$java_awt_Component_lostFocus__Ljava_awt_Event_2Ljava_lang_Object_2)
 0002:00019678  Imp  _$java_awt_Component_gotFocus__Ljava_awt_Event_2Ljava_lang_Object_2 (SNJAWT11.DLL.$java_awt_Component_gotFocus__Ljava_awt_Event_2Ljava_lang_Object_2)
 0002:0001967E  Imp  _$java_awt_Window_readObject__Ljava_io_ObjectInputStream_2 (SNJAWT11.DLL.$java_awt_Window_readObject__Ljava_io_ObjectInputStream_2)
 0002:00019684  Imp  _$java_awt_Window_writeObject__Ljava_io_ObjectOutputStream_2 (SNJAWT11.DLL.$java_awt_Window_writeObject__Ljava_io_ObjectOutputStream_2)
 0002:0001968A  Imp  _$java_awt_Component_getNativeContainer__ (SNJAWT11.DLL.$java_awt_Component_getNativeContainer__)
 0002:00019690  Imp  _$java_awt_Container_list__Ljava_io_PrintWriter_2I (SNJAWT11.DLL.$java_awt_Container_list__Ljava_io_PrintWriter_2I)
 0002:00019696  Imp  _$java_awt_Component_list__Ljava_io_PrintWriter_2 (SNJAWT11.DLL.$java_awt_Component_list__Ljava_io_PrintWriter_2)
 0002:0001969C  Imp  _$java_awt_Container_list__Ljava_io_PrintStream_2I (SNJAWT11.DLL.$java_awt_Container_list__Ljava_io_PrintStream_2I)
 0002:000196A2  Imp  _$java_awt_Component_list__Ljava_io_PrintStream_2 (SNJAWT11.DLL.$java_awt_Component_list__Ljava_io_PrintStream_2)
 0002:000196A8  Imp  _$java_awt_Component_list__ (SNJAWT11.DLL.$java_awt_Component_list__)
 0002:000196AE  Imp  _$java_awt_Container_add__Ljava_lang_String_2Ljava_awt_Component_2 (SNJAWT11.DLL.$java_awt_Container_add__Ljava_lang_String_2Ljava_awt_Component_2)
 0002:000196B4  Imp  _$java_awt_Container_add__Ljava_awt_Component_2 (SNJAWT11.DLL.$java_awt_Container_add__Ljava_awt_Component_2)
 0002:000196BA  Imp  _$java_awt_Container_insets__ (SNJAWT11.DLL.$java_awt_Container_insets__)
 0002:000196C0  Imp  _$java_awt_Container_getInsets__ (SNJAWT11.DLL.$java_awt_Container_getInsets__)
 0002:000196C6  Imp  _$java_awt_Container_getComponents__ (SNJAWT11.DLL.$java_awt_Container_getComponents__)
 0002:000196CC  Imp  _$java_awt_Container_getComponent__I (SNJAWT11.DLL.$java_awt_Container_getComponent__I)
 0002:000196D2  Imp  _$java_awt_Container_countComponents__ (SNJAWT11.DLL.$java_awt_Container_countComponents__)
 0002:000196D8  Imp  _$java_awt_Container_getComponentCount__ (SNJAWT11.DLL.$java_awt_Container_getComponentCount__)
 0002:000196DE  Imp  _$java_awt_Container_getLayout__ (SNJAWT11.DLL.$java_awt_Container_getLayout__)
 0002:000196E4  Imp  _$java_awt_Container_removeAll__ (SNJAWT11.DLL.$java_awt_Container_removeAll__)
 0002:000196EA  Imp  _$java_awt_Container_remove__Ljava_awt_Component_2 (SNJAWT11.DLL.$java_awt_Container_remove__Ljava_awt_Component_2)
 0002:000196F0  Imp  _$java_awt_Container_remove__I (SNJAWT11.DLL.$java_awt_Container_remove__I)
 0002:000196F6  Imp  _$java_awt_Container_addImpl__Ljava_awt_Component_2Ljava_lang_Object_2I (SNJAWT11.DLL.$java_awt_Container_addImpl__Ljava_awt_Component_2Ljava_lang_Object_2I)
 0002:000196FC  Imp  _$java_awt_Container_add__Ljava_awt_Component_2Ljava_lang_Object_2I (SNJAWT11.DLL.$java_awt_Container_add__Ljava_awt_Component_2Ljava_lang_Object_2I)
 0002:00019702  Imp  _$java_awt_Container_add__Ljava_awt_Component_2Ljava_lang_Object_2 (SNJAWT11.DLL.$java_awt_Container_add__Ljava_awt_Component_2Ljava_lang_Object_2)
 0002:00019708  Imp  _$java_awt_Container_add__Ljava_awt_Component_2I (SNJAWT11.DLL.$java_awt_Container_add__Ljava_awt_Component_2I)
 0002:0001970E  Imp  _$java_awt_Container_getMouseEventTarget__II (SNJAWT11.DLL.$java_awt_Container_getMouseEventTarget__II)
 0002:00019714  Imp  _$java_awt_Container_processContainerEvent__Ljava_awt_event_ContainerEvent_2 (SNJAWT11.DLL.$java_awt_Container_processContainerEvent__Ljava_awt_event_ContainerEvent_2)
 0002:0001971A  Imp  _$java_awt_Container_removeContainerListener__Ljava_awt_event_ContainerListener_2 (SNJAWT11.DLL.$java_awt_Container_removeContainerListener__Ljava_awt_event_ContainerListener_2)
 0002:00019720  Imp  _$java_awt_Container_addContainerListener__Ljava_awt_event_ContainerListener_2 (SNJAWT11.DLL.$java_awt_Container_addContainerListener__Ljava_awt_event_ContainerListener_2)
 0002:00019726  Imp  _$java_awt_Container_printComponents__Ljava_awt_Graphics_2 (SNJAWT11.DLL.$java_awt_Container_printComponents__Ljava_awt_Graphics_2)
 0002:0001972C  Imp  _$java_awt_Container_paintComponents__Ljava_awt_Graphics_2 (SNJAWT11.DLL.$java_awt_Container_paintComponents__Ljava_awt_Graphics_2)
 0002:00019732  Imp  _$java_awt_Container_validateTree__ (SNJAWT11.DLL.$java_awt_Container_validateTree__)
 0002:00019738  Imp  _$java_awt_Container_setLayout__Ljava_awt_LayoutManager_2 (SNJAWT11.DLL.$java_awt_Container_setLayout__Ljava_awt_LayoutManager_2)
 0002:0001973E  Imp  _$java_awt_Window_transferFocus__Ljava_awt_Component_2 (SNJAWT11.DLL.$java_awt_Window_transferFocus__Ljava_awt_Component_2)
 0002:00019744  Imp  _$java_awt_Window_postProcessKeyEvent__Ljava_awt_event_KeyEvent_2 (SNJAWT11.DLL.$java_awt_Window_postProcessKeyEvent__Ljava_awt_event_KeyEvent_2)
 0002:0001974A  Imp  _$java_awt_Window_preProcessKeyEvent__Ljava_awt_event_KeyEvent_2 (SNJAWT11.DLL.$java_awt_Window_preProcessKeyEvent__Ljava_awt_event_KeyEvent_2)
 0002:00019750  Imp  _$java_awt_Window_setFocusOwner__Ljava_awt_Component_2 (SNJAWT11.DLL.$java_awt_Window_setFocusOwner__Ljava_awt_Component_2)
 0002:00019756  Imp  _$java_awt_Container_isAncestorOf__Ljava_awt_Component_2 (SNJAWT11.DLL.$java_awt_Container_isAncestorOf__Ljava_awt_Component_2)
 0002:0001975C  Imp  _$java_awt_Container_proxyRequestFocus__Ljava_awt_Component_2 (SNJAWT11.DLL.$java_awt_Container_proxyRequestFocus__Ljava_awt_Component_2)
 0002:00019762  Imp  _$java_awt_Container_getWindow__ (SNJAWT11.DLL.$java_awt_Container_getWindow__)
 0002:00019768  Imp  _$java_awt_Container_proxyEnableEvents__J (SNJAWT11.DLL.$java_awt_Container_proxyEnableEvents__J)
 0002:0001976E  Imp  _$java_awt_Window_addWindowListener__Ljava_awt_event_WindowListener_2 (SNJAWT11.DLL.$java_awt_Window_addWindowListener__Ljava_awt_event_WindowListener_2)
 0002:00019774  Imp  _$java_awt_Window_getWarningString__ (SNJAWT11.DLL.$java_awt_Window_getWarningString__)
 0002:0001977A  Imp  _$java_awt_Window_toBack__ (SNJAWT11.DLL.$java_awt_Window_toBack__)
 0002:00019780  Imp  _$java_awt_Window_toFront__ (SNJAWT11.DLL.$java_awt_Window_toFront__)
 0002:00019786  Imp  _$java_awt_Window_dispose__ (SNJAWT11.DLL.$java_awt_Window_dispose__)
 0002:0001978C  Imp  _$java_awt_Window_postWindowEvent__I (SNJAWT11.DLL.$java_awt_Window_postWindowEvent__I)
 0002:00019792  Imp  _$java_awt_Window_pack__ (SNJAWT11.DLL.$java_awt_Window_pack__)
 0002:00019798  Imp  _$java_awt_Window_nextFocus__Ljava_awt_Component_2 (SNJAWT11.DLL.$java_awt_Window_nextFocus__Ljava_awt_Component_2)
 0002:0001979E  Imp  _$java_awt_Dialog_setTitle__Ljava_lang_String_2 (SNJAWT11.DLL.$java_awt_Dialog_setTitle__Ljava_lang_String_2)
 0002:000197A4  Imp  _$java_awt_Dialog_getTitle__ (SNJAWT11.DLL.$java_awt_Dialog_getTitle__)
 0002:000197AA  Imp  _$java_awt_Dialog_setModal__Z (SNJAWT11.DLL.$java_awt_Dialog_setModal__Z)
 0002:000197B0  Imp  _$java_awt_Dialog_isModal__ (SNJAWT11.DLL.$java_awt_Dialog_isModal__)
 0002:000197B6  Imp  _$java_awt_Window_getFocusOwner__ (SNJAWT11.DLL.$java_awt_Window_getFocusOwner__)
 0002:000197BC  Imp  _$java_awt_Window_handleTabEvent__Ljava_awt_event_KeyEvent_2 (SNJAWT11.DLL.$java_awt_Window_handleTabEvent__Ljava_awt_event_KeyEvent_2)
 0002:000197C2  Imp  _$java_awt_Window_processWindowEvent__Ljava_awt_event_WindowEvent_2 (SNJAWT11.DLL.$java_awt_Window_processWindowEvent__Ljava_awt_event_WindowEvent_2)
 0002:000197C8  Imp  _$java_awt_Window_removeWindowListener__Ljava_awt_event_WindowListener_2 (SNJAWT11.DLL.$java_awt_Window_removeWindowListener__Ljava_awt_event_WindowListener_2)
 0002:000197CE  Imp  _$java_awt_Dialog_setResizable__Z (SNJAWT11.DLL.$java_awt_Dialog_setResizable__Z)
 0002:000197D4  Imp  _$java_awt_Dialog_isResizable__ (SNJAWT11.DLL.$java_awt_Dialog_isResizable__)
 0002:000197DA  Imp  _$java_awt_Component_setVisible__Z (SNJAWT11.DLL.$java_awt_Component_setVisible__Z)
 0002:000197E0  Imp  _$java_awt_Dialog_addNotify__ (SNJAWT11.DLL.$java_awt_Dialog_addNotify__)
 0002:000197E6  Imp  _$Classjava_awt_Button (SNJAWT11.DLL.$Classjava_awt_Button)
 0002:000197EC  Imp  _$java_awt_TextField__4init_5__ (SNJAWT11.DLL.$java_awt_TextField__4init_5__)
 0002:000197F2  Imp  _$Classjava_awt_TextField (SNJAWT11.DLL.$Classjava_awt_TextField)
 0002:000197F8  Imp  _$java_awt_Label__4init_5__Ljava_lang_String_2 (SNJAWT11.DLL.$java_awt_Label__4init_5__Ljava_lang_String_2)
 0002:000197FE  Imp  _$Classjava_awt_Label (SNJAWT11.DLL.$Classjava_awt_Label)
 0002:00019804  Imp  _$java_awt_Color__4init_5__I (SNJAWT11.DLL.$java_awt_Color__4init_5__I)
 0002:0001980A  Imp  _$Classjava_awt_Color (SNJAWT11.DLL.$Classjava_awt_Color)
 0002:00019810  Imp  _$java_awt_Dialog__4init_5__Ljava_awt_Frame_2Z (SNJAWT11.DLL.$java_awt_Dialog__4init_5__Ljava_awt_Frame_2Z)
 0002:00019816  Imp  _$java_awt_Button__4init_5__ (SNJAWT11.DLL.$java_awt_Button__4init_5__)
 0002:0001981C  Imp  _$Classjava_beans_PropertyVetoException (SNJBEANS11.DLL.$Classjava_beans_PropertyVetoException)
 0002:00019822  Imp  _SNJRegisterModule   (SNJRT11.DLL.SNJRegisterModule)
 0002:00019828  Imp  _SNJRunMain          (SNJRT11.DLL.SNJRunMain)
 0002:0001982E  Imp  _sysAtexit           (SNJRT11.DLL.sysAtexit)
 0002:00019834  Imp  _sysExit             (SNJRT11.DLL.sysExit)
 0002:0001983A  Imp  _$java_lang_String_trim__ (SNJRT11.DLL.$java_lang_String_trim__)
 0002:00019840  Imp  _$java_lang_Integer_intValue__ (SNJRT11.DLL.$java_lang_Integer_intValue__)
 0002:00019846  Imp  _$java_util_Vector_contains__Ljava_lang_Object_2 (SNJRT11.DLL.$java_util_Vector_contains__Ljava_lang_Object_2)
 0002:0001984C  Imp  _$java_lang_Integer__4init_5__I (SNJRT11.DLL.$java_lang_Integer__4init_5__I)
 0002:00019852  Imp  _$Classjava_lang_Integer (SNJRT11.DLL.$Classjava_lang_Integer)
 0002:00019858  Imp  _$Classjava_lang_NumberFormatException (SNJRT11.DLL.$Classjava_lang_NumberFormatException)
 0002:0001985E  Imp  _$java_lang_String_valueOf__I (SNJRT11.DLL.$java_lang_String_valueOf__I)
 0002:00019864  Imp  _$java_lang_Integer_parseInt__Ljava_lang_String_2 (SNJRT11.DLL.$java_lang_Integer_parseInt__Ljava_lang_String_2)
 0002:0001986A  Imp  __j_newarray@8       (SNJRT11.DLL.__j_newarray@8)
 0002:00019870  Imp  _$Classjava_lang_Exception (SNJRT11.DLL.$Classjava_lang_Exception)
 0002:00019876  Imp  _$java_lang_String__4init_5__Ljava_lang_String_2 (SNJRT11.DLL.$java_lang_String__4init_5__Ljava_lang_String_2)
 0002:0001987C  Imp  __j_anewarray@8      (SNJRT11.DLL.__j_anewarray@8)
 0002:00019882  Imp  _$Classjava_lang_String (SNJRT11.DLL.$Classjava_lang_String)
 0002:00019888  Imp  _$Classjava_util_Vector (SNJRT11.DLL.$Classjava_util_Vector)
 0002:0001988E  Imp  _$java_util_Vector__4init_5__ (SNJRT11.DLL.$java_util_Vector__4init_5__)
 0002:00019894  Imp  _$java_util_Vector_removeElement__Ljava_lang_Object_2 (SNJRT11.DLL.$java_util_Vector_removeElement__Ljava_lang_Object_2)
 0002:0001989A  Imp  _$java_util_Vector_size__ (SNJRT11.DLL.$java_util_Vector_size__)
 0002:000198A0  Imp  __j_intfvtable@8     (SNJRT11.DLL.__j_intfvtable@8)
 0002:000198A6  Imp  _$java_util_Vector_elements__ (SNJRT11.DLL.$java_util_Vector_elements__)
 0002:000198AC  Imp  _$Classjava_util_Date (SNJRT11.DLL.$Classjava_util_Date)
 0002:000198B2  Imp  _$java_util_Date__4init_5__ (SNJRT11.DLL.$java_util_Date__4init_5__)
 0002:000198B8  Imp  _$Classjava_lang_ClassNotFoundException (SNJRT11.DLL.$Classjava_lang_ClassNotFoundException)
 0002:000198BE  Imp  _$java_lang_System_exit__I (SNJRT11.DLL.$java_lang_System_exit__I)
 0002:000198C4  Imp  __j_local_unwind2    (SNJRT11.DLL._j_local_unwind2)
 0002:000198CA  Imp  _$java_io_ObjectOutputStream_writeObject__Ljava_lang_Object_2 (SNJRT11.DLL.$java_io_ObjectOutputStream_writeObject__Ljava_lang_Object_2)
 0002:000198D0  Imp  _$java_io_ObjectOutputStream__4init_5__Ljava_io_OutputStream_2 (SNJRT11.DLL.$java_io_ObjectOutputStream__4init_5__Ljava_io_OutputStream_2)
 0002:000198D6  Imp  _$Classjava_io_ObjectOutputStream (SNJRT11.DLL.$Classjava_io_ObjectOutputStream)
 0002:000198DC  Imp  _$Classjava_io_FileOutputStream (SNJRT11.DLL.$Classjava_io_FileOutputStream)
 0002:000198E2  Imp  _$java_io_ObjectInputStream_readObject__ (SNJRT11.DLL.$java_io_ObjectInputStream_readObject__)
 0002:000198E8  Imp  _$java_io_ObjectInputStream__4init_5__Ljava_io_InputStream_2 (SNJRT11.DLL.$java_io_ObjectInputStream__4init_5__Ljava_io_InputStream_2)
 0002:000198EE  Imp  _$Classjava_io_ObjectInputStream (SNJRT11.DLL.$Classjava_io_ObjectInputStream)
 0002:000198F4  Imp  _$java_io_FileInputStream__4init_5__Ljava_lang_String_2 (SNJRT11.DLL.$java_io_FileInputStream__4init_5__Ljava_lang_String_2)
 0002:000198FA  Imp  _$Classjava_io_FileInputStream (SNJRT11.DLL.$Classjava_io_FileInputStream)
 0002:00019900  Imp  _$java_io_FileOutputStream__4init_5__Ljava_lang_String_2 (SNJRT11.DLL.$java_io_FileOutputStream__4init_5__Ljava_lang_String_2)
 0002:00019906  Imp  _$java_text_DateFormat_format__Ljava_util_Date_2 (SNJRT11.DLL.$java_text_DateFormat_format__Ljava_util_Date_2)
 0002:0001990C  Imp  _$java_text_SimpleDateFormat__4init_5__Ljava_lang_String_2 (SNJRT11.DLL.$java_text_SimpleDateFormat__4init_5__Ljava_lang_String_2)
 0002:00019912  Imp  _$Classjava_text_SimpleDateFormat (SNJRT11.DLL.$Classjava_text_SimpleDateFormat)
 0002:00019918  Imp  _$Classjava_net_MalformedURLException (SNJRT11.DLL.$Classjava_net_MalformedURLException)
 0002:0001991E  Imp  _$java_lang_Object__4init_5__ (SNJRT11.DLL.$java_lang_Object__4init_5__)
 0002:00019924  Imp  _$Classjava_lang_Object (SNJRT11.DLL.$Classjava_lang_Object)
 0002:0001992A  Imp  _$Classjava_util_EventListener (SNJRT11.DLL.$Classjava_util_EventListener)
 0002:00019930  Imp  _$Classjava_io_IOException (SNJRT11.DLL.$Classjava_io_IOException)
 0002:00019936  Imp  _$Classjava_lang_ClassCastException (SNJRT11.DLL.$Classjava_lang_ClassCastException)
 0002:0001993C  Imp  _$java_lang_Runtime_getRuntime__ (SNJRT11.DLL.$java_lang_Runtime_getRuntime__)
 0002:00019942  Imp  __j_arraybounds@0    (SNJRT11.DLL.__j_arraybounds@0)
 0002:00019948  Imp  __j_classinit        (SNJRT11.DLL._j_classinit)
 0002:0001994E  Imp  _$java_lang_StringBuffer_toString__ (SNJRT11.DLL.$java_lang_StringBuffer_toString__)
 0002:00019954  Imp  __j_stringfix        (SNJRT11.DLL._j_stringfix)
 0002:0001995A  Imp  _$java_lang_StringBuffer_append__Ljava_lang_String_2 (SNJRT11.DLL.$java_lang_StringBuffer_append__Ljava_lang_String_2)
 0002:00019960  Imp  _$java_lang_String_substring__II (SNJRT11.DLL.$java_lang_String_substring__II)
 0002:00019966  Imp  _$java_lang_StringBuffer__4init_5__ (SNJRT11.DLL.$java_lang_StringBuffer__4init_5__)
 0002:0001996C  Imp  _$Classjava_lang_StringBuffer (SNJRT11.DLL.$Classjava_lang_StringBuffer)
 0002:00019972  Imp  _$Classjava_lang_ArrayIndexOutOfBoundsException (SNJRT11.DLL.$Classjava_lang_ArrayIndexOutOfBoundsException)
 0002:00019978  Imp  _$java_util_Vector_addElement__Ljava_lang_Object_2 (SNJRT11.DLL.$java_util_Vector_addElement__Ljava_lang_Object_2)
 0002:0001997E  Imp  __j_new@4            (SNJRT11.DLL.__j_new@4)
 0002:00019984  Imp  _$java_util_Vector_removeElementAt__I (SNJRT11.DLL.$java_util_Vector_removeElementAt__I)
 0002:0001998A  Imp  __java_framehandler  (SNJRT11.DLL._java_framehandler)
 0002:00019990  Imp  __j_checkcast@8      (SNJRT11.DLL.__j_checkcast@8)
 0002:00019996  Imp  _$java_util_Vector_elementAt__I (SNJRT11.DLL.$java_util_Vector_elementAt__I)
 0002:0001999C  Imp  __vtbl_$Classjava_lang_Class (SNJRT11.DLL._vtbl_$Classjava_lang_Class)
 0002:000199A2  Imp  _$Classjava_io_Serializable (SNJRT11.DLL.$Classjava_io_Serializable)
 0002:000199A8  Imp  _$java_lang_Object_getClass__ (SNJRT11.DLL.$java_lang_Object_getClass__)
 0002:000199AE  Imp  _$java_lang_Object_hashCode__ (SNJRT11.DLL.$java_lang_Object_hashCode__)
 0002:000199B4  Imp  _$java_lang_Object_equals__Ljava_lang_Object_2 (SNJRT11.DLL.$java_lang_Object_equals__Ljava_lang_Object_2)
 0002:000199BA  Imp  _$java_lang_Object_clone__ (SNJRT11.DLL.$java_lang_Object_clone__)
 0002:000199C0  Imp  _$java_lang_Object_toString__ (SNJRT11.DLL.$java_lang_Object_toString__)
 0002:000199C6  Imp  _$java_lang_Object_notify__ (SNJRT11.DLL.$java_lang_Object_notify__)
 0002:000199CC  Imp  _$java_lang_Object_notifyAll__ (SNJRT11.DLL.$java_lang_Object_notifyAll__)
 0002:000199D2  Imp  _$java_lang_Object_wait__J (SNJRT11.DLL.$java_lang_Object_wait__J)
 0002:000199D8  Imp  _$java_lang_Object_wait__JI (SNJRT11.DLL.$java_lang_Object_wait__JI)
 0002:000199DE  Imp  _$java_lang_Object_wait__ (SNJRT11.DLL.$java_lang_Object_wait__)
 0002:000199E4  Imp  _$java_lang_Object_finalize__ (SNJRT11.DLL.$java_lang_Object_finalize__)
 0002:000199EA  Imp  _GetCPInfo@8         (KERNEL32.DLL.GetCPInfo)
 0002:000199F0  Imp  _GetOEMCP@0          (KERNEL32.DLL.GetOEMCP)
 0002:000199F6  Imp  _GetACP@0            (KERNEL32.DLL.GetACP)
 0002:000199FC  Imp  _FindClose@4         (KERNEL32.DLL.FindClose)
 0002:00019A02  Imp  _FindFirstFileA@8    (KERNEL32.DLL.FindFirstFileA)
 0002:00019A08  Imp  _FileTimeToDosDateTime@12 (KERNEL32.DLL.FileTimeToDosDateTime)
 0002:00019A0E  Imp  _FindNextFileA@8     (KERNEL32.DLL.FindNextFileA)
 0002:00019A14  Imp  _LoadLibraryA@4      (KERNEL32.DLL.LoadLibraryA)
 0002:00019A1A  Imp  _GetProcAddress@8    (KERNEL32.DLL.GetProcAddress)
 0002:00019A20  Imp  _VirtualProtect@16   (KERNEL32.DLL.VirtualProtect)
 0002:00019A26  Imp  _GetEnvironmentVariableA@12 (KERNEL32.DLL.GetEnvironmentVariableA)
 0002:00019A2C  Imp  _CreateThread@24     (KERNEL32.DLL.CreateThread)
 0002:00019A32  Imp  _SetThreadPriority@8 (KERNEL32.DLL.SetThreadPriority)
 0002:00019A38  Imp  _CloseHandle@4       (KERNEL32.DLL.CloseHandle)
 0002:00019A3E  Imp  _RtlUnwind@16        (KERNEL32.DLL.RtlUnwind)
 0002:00019A44  Imp  _GetModuleFileNameA@12 (KERNEL32.DLL.GetModuleFileNameA)
 0002:00019A4A  Imp  _DeleteCriticalSection@4 (KERNEL32.DLL.DeleteCriticalSection)
 0002:00019A50  Imp  _UnhandledExceptionFilter@4 (KERNEL32.DLL.UnhandledExceptionFilter)
 0002:00019A56  Imp  _GetTickCount@0      (KERNEL32.DLL.GetTickCount)
 0002:00019A5C  Imp  _GetModuleHandleA@4  (KERNEL32.DLL.GetModuleHandleA)
 0002:00019A62  Imp  _GetCommandLineA@0   (KERNEL32.DLL.GetCommandLineA)
 0002:00019A68  Imp  _VirtualAlloc@16     (KERNEL32.DLL.VirtualAlloc)
 0002:00019A6E  Imp  _VirtualFree@12      (KERNEL32.DLL.VirtualFree)
 0002:00019A74  Imp  _WriteConsoleA@20    (KERNEL32.DLL.WriteConsoleA)
 0002:00019A7A  Imp  _GetStdHandle@4      (KERNEL32.DLL.GetStdHandle)
 0002:00019A80  Imp  _ExitProcess@4       (KERNEL32.DLL.ExitProcess)
 0002:00019A86  Imp  _InitializeCriticalSection@4 (KERNEL32.DLL.InitializeCriticalSection)
 0002:00019A8C  Imp  _EnterCriticalSection@4 (KERNEL32.DLL.EnterCriticalSection)
 0002:00019A92  Imp  _LeaveCriticalSection@4 (KERNEL32.DLL.LeaveCriticalSection)
 0002:00019A98  Imp  _FreeEnvironmentStringsA@4 (KERNEL32.DLL.FreeEnvironmentStringsA)
 0002:00019A9E  Imp  _GetVersion@0        (KERNEL32.DLL.GetVersion)
 0002:00019AA4  Imp  _GetEnvironmentStrings@0 (KERNEL32.DLL.GetEnvironmentStrings)
 0002:00019AAA  Imp  _WaitForSingleObject@8 (KERNEL32.DLL.WaitForSingleObject)
 0002:00019AB0  Imp  _CreateSemaphoreA@16 (KERNEL32.DLL.CreateSemaphoreA)
 0002:00019AB6  Imp  _ReleaseSemaphore@12 (KERNEL32.DLL.ReleaseSemaphore)
 0002:00019ABC  Imp  _GetCurrentThreadId@0 (KERNEL32.DLL.GetCurrentThreadId)
 0002:00019AC2  Imp  _GetLastError@0      (KERNEL32.DLL.GetLastError)
 0002:00019AC8  Imp  _WideCharToMultiByte@32 (KERNEL32.DLL.WideCharToMultiByte)
 0002:00019ACE  Imp  _MultiByteToWideChar@24 (KERNEL32.DLL.MultiByteToWideChar)
 0002:00019AD4  Imp  _LCMapStringA@24     (KERNEL32.DLL.LCMapStringA)
 0002:00019ADA  Imp  _GetStringTypeA@20   (KERNEL32.DLL.GetStringTypeA)
 0002:00019AE0  Imp  _MessageBoxA@16      (user32.DLL.MessageBoxA)
 0002:00019AE6  Imp  _$Classsymantec_itools_awt_RadioButtonGroupPanel (symbeans.dll.$Classsymantec_itools_awt_RadioButtonGroupPanel)
 0002:00019AEC  Imp  _$symantec_itools_awt_MultiList__4init_5__ (symbeans.dll.$symantec_itools_awt_MultiList__4init_5__)
 0002:00019AF2  Imp  _$Classsymantec_itools_awt_MultiList (symbeans.dll.$Classsymantec_itools_awt_MultiList)
 0002:00019AF8  Imp  _$symantec_itools_awt_RadioButtonGroupPanel__4init_5__ (symbeans.dll.$symantec_itools_awt_RadioButtonGroupPanel__4init_5__)
 0002:00019AFE  Imp  _$symantec_itools_awt_util_ToolBarPanel__4init_5__ (symbeans.dll.$symantec_itools_awt_util_ToolBarPanel__4init_5__)
 0002:00019B04  Imp  _$Classsymantec_itools_awt_util_ToolBarPanel (symbeans.dll.$Classsymantec_itools_awt_util_ToolBarPanel)
 0002:00019B0A  Imp  _$symantec_itools_awt_StatusBar__4init_5__ (symbeans.dll.$symantec_itools_awt_StatusBar__4init_5__)
 0002:00019B10  Imp  _$Classsymantec_itools_awt_StatusBar (symbeans.dll.$Classsymantec_itools_awt_StatusBar)
 0002:00019B16  Imp  _$symantec_itools_awt_ImageButton__4init_5__ (symbeans.dll.$symantec_itools_awt_ImageButton__4init_5__)
 0002:00019B1C  Imp  _$Classsymantec_itools_awt_ImageButton (symbeans.dll.$Classsymantec_itools_awt_ImageButton)
 0002:00019B22  Imp  _$symantec_itools_net_RelativeURL_getURL__Ljava_lang_String_2 (symbeans.dll.$symantec_itools_net_RelativeURL_getURL__Ljava_lang_String_2)
 0002:00019B28  Imp  _$symantec_itools_multimedia_ImageViewer__4init_5__ (symbeans.dll.$symantec_itools_multimedia_ImageViewer__4init_5__)
 0002:00019B2E  Imp  _$Classsymantec_itools_multimedia_ImageViewer (symbeans.dll.$Classsymantec_itools_multimedia_ImageViewer)
 0003:00000000       __xi_a                     00421000
 0003:00000010       __xi_z                     00421010
 0003:00000020       __xc_a                     00421020
 0003:00000030       __xc_z                     00421030
 0003:00000040       __xp_a                     00421040
 0003:00000050       __xp_z                     00421050
 0003:00000060       __xt_a                     00421060
 0003:00000070       __xt_z                     00421070
 0003:00000074       __imp__$ClassYourdon_ElementoEssencial 00421074
 0003:00000078       __imp__$ClassYourdon_Deposito 00421078
 0003:0000007C       __imp__$ClassYourdon_ListaElementos 0042107C
 0003:00000080       __imp__$Yourdon_Simbolo_TEXTO 00421080
 0003:00000084       __imp__$ClassYourdon_Simbolo 00421084
 0003:00000088       __imp__$ClassYourdon_SimboloMovel 00421088
 0003:0000008C       __imp__$ClassEditarDepositoDialog_9SymWindow 0042108C
 0003:00000090       __imp__$ClassEditarDepositoDialog_9SymAction 00421090
 0003:00000094       __imp__$ClassEditarDepositoDialog_9SymFocus 00421094
 0003:00000098       __imp__$ClassEditarDepositoDialog 00421098
 0003:0000009C       __imp__$ClassSelecionarDepositoDialog_9SymWindow 0042109C
 0003:000000A0       __imp__$ClassSelecionarDepositoDialog_9SymAction 004210A0
 0003:000000A4       __imp__$ClassSelecionarDepositoDialog_9SymMouse 004210A4
 0003:000000A8       __imp__$ClassSplashWindow_9SymMouse 004210A8
 0003:000000AC       __imp__$ClassEditarEntidadeDialog 004210AC
 0003:000000B0       __imp__$ClassSelecionarEntidadeDialog_9SymWindow 004210B0
 0003:000000B4       __imp__$ClassSelecionarEntidadeDialog_9SymAction 004210B4
 0003:000000B8       __imp__$ClassSelecionarEntidadeDialog_9SymMouse 004210B8
 0003:000000BC       __imp__$ClassEditarProjetoDialog_9SymWindow 004210BC
 0003:000000C0       __imp__$ClassEditarProjetoDialog_9SymAction 004210C0
 0003:000000C4       __imp__$ClassConfirmarSalvarDialog_9SymWindow 004210C4
 0003:000000C8       __imp__$ClassConfirmarSalvarDialog_9SymAction 004210C8
 0003:000000CC       __imp__$ClassEditarProjetoDialog 004210CC
 0003:000000D0       __imp__$ClassConfirmarSalvarDialog 004210D0
 0003:000000D4       __imp__$ClassYourdon_Projeto 004210D4
 0003:000000D8       __imp__$ClassPowerCase_9SymWindow 004210D8
 0003:000000DC       __imp__$ClassPowerCase_9SymAction 004210DC
 0003:000000E0       __imp__$ClassSplashWindow  004210E0
 0003:000000E4       __imp__$ClassQuitDialog    004210E4
 0003:000000E8       __imp__$ClassDFDDialog     004210E8
 0003:000000EC       __imp__$ClassEntidadesDialog 004210EC
 0003:000000F0       __imp__$ClassEventosDialog 004210F0
 0003:000000F4       __imp__$ClassContextoDialog 004210F4
 0003:000000F8       __imp__$ClassAboutDialog_9SymWindow 004210F8
 0003:000000FC       __imp__$ClassAboutDialog_9SymAction 004210FC
 0003:00000100       __imp__$ClassQuitDialog_9SymAction 00421100
 0003:00000104       __imp__$ClassQuitDialog_9SymWindow 00421104
 0003:00000108       __imp__$ClassDFDDialog_9SymWindow 00421108
 0003:0000010C       __imp__$ClassDFDDialog_9SymAction 0042110C
 0003:00000110       __imp__$ClassDiagramaCanvas 00421110
 0003:00000114       __imp__$ClassYourdon_Diagrama 00421114
 0003:00000118       __imp__$ClassYourdon_ListaEventos 00421118
 0003:0000011C       __imp__$ClassYourdon_ListaDepositos 0042111C
 0003:00000120       __imp__$ClassYourdon_ListaFluxos 00421120
 0003:00000124       __imp__$ClassYourdon_ListaProcessos 00421124
 0003:00000128       __imp__$ClassYourdon_ListaEntidades 00421128
 0003:0000012C       __imp__$ClassYourdon_SimboloDeposito 0042112C
 0003:00000130       __imp__$ClassYourdon_SimboloFluxo 00421130
 0003:00000134       __imp__$ClassYourdon_SimboloProcesso 00421134
 0003:00000138       __imp__$ClassYourdon_SimboloEntidade 00421138
 0003:0000013C       __imp__$ClassYourdon_Entidade 0042113C
 0003:00000140       __imp__$ClassYourdon_Processo 00421140
 0003:00000144       __imp__$ClassContextoDialog_9SymWindow 00421144
 0003:00000148       __imp__$ClassContextoDialog_9SymAction 00421148
 0003:0000014C       __imp__$ClassEntidadesDialog_9SymWindow 0042114C
 0003:00000150       __imp__$ClassEntidadesDialog_9SymAction 00421150
 0003:00000154       __imp__$ClassEntidadesDialog_9SymMouse 00421154
 0003:00000158       __imp__$ClassEditarEventoDialog 00421158
 0003:0000015C       __imp__$ClassEventosDialog_9SymMouse 0042115C
 0003:00000160       __imp__$ClassEventosDialog_9SymItem 00421160
 0003:00000164       __imp__$ClassEventosDialog_9SymAction 00421164
 0003:00000168       __imp__$ClassEventosDialog_9SymWindow 00421168
 0003:0000016C       __imp__$ClassEditarEventoDialog_9SymWindow 0042116C
 0003:00000170       __imp__$ClassEditarEventoDialog_9SymAction 00421170
 0003:00000174       __imp__$ClassEditarEventoDialog_9SymItem 00421174
 0003:00000178       __imp__$ClassEditarEventoDialog_9SymFocus 00421178
 0003:0000017C       __imp__$ClassSelecionarDepositoDialog 0042117C
 0003:00000180       __imp__$ClassEditarProcessoDialog 00421180
 0003:00000184       __imp__$ClassEditarFluxoDialog 00421184
 0003:00000188       __imp__$ClassSelecionarEntidadeDialog 00421188
 0003:0000018C       __imp__$ClassDiagramaCanvas_9DiagramaCanvasMouseMotionListener 0042118C
 0003:00000190       __imp__$ClassDiagramaCanvas_9DiagramaCanvasMouseListener 00421190
 0003:00000194       __imp__$ClassEditarEntidadeDialog_9SymWindow 00421194
 0003:00000198       __imp__$ClassEditarEntidadeDialog_9SymAction 00421198
 0003:0000019C       __imp__$ClassEditarEntidadeDialog_9SymFocus 0042119C
 0003:000001A0       __imp__$ClassEditarFluxoDialog_9SymWindow 004211A0
 0003:000001A4       __imp__$ClassEditarFluxoDialog_9SymAction 004211A4
 0003:000001A8       __imp__$ClassEditarFluxoDialog_9SymFocus 004211A8
 0003:000001AC       __imp__$ClassYourdon_Fluxo 004211AC
 0003:000001B0       __imp__$Yourdon_Simbolo_BORDA 004211B0
 0003:000001B4       __imp__$Yourdon_Simbolo_SELECIONADO 004211B4
 0003:000001B8       __imp__$ClassYourdon_Evento 004211B8
 0003:000001BC       __imp__$ClassEditarProcessoDialog_9SymWindow 004211BC
 0003:000001C0       __imp__$ClassEditarProcessoDialog_9SymAction 004211C0
 0003:000001C4       __imp__$ClassEditarProcessoDialog_9SymFocus 004211C4
 0003:000001D0       _$ClassYourdon_Deposito    004211D0
 0003:000002B0       __vtbl_$ClassYourdon_Deposito 004212B0
 0003:00000340       _$ClassYourdon_ListaDepositos 00421340
 0003:00000520       __cast_$Classjava_lang_Object 00421520
 0003:00000550       __cast_$Classjava_io_Serializable 00421550
 0003:00000580       __cast_$ClassYourdon_ElementoEssencial 00421580
 0003:000005C0       __cast_$ClassYourdon_Deposito 004215C0
 0003:000005F0       __vtbl_$ClassYourdon_ListaDepositos 004215F0
 0003:00000680       _$ClassYourdon_SimboloDeposito 00421680
 0003:000007B0       __vtbl_$ClassYourdon_SimboloDeposito 004217B0
 0003:00000AC0       _$ClassEditarDepositoDialog 00421AC0
 0003:00001090       __cast_$Classjava_awt_MenuContainer 00422090
 0003:000010C0       __cast_$Classjava_awt_image_ImageObserver 004220C0
 0003:00001100       __cast_$Classjava_awt_Component 00422100
 0003:00001140       __cast_$Classjava_awt_Container 00422140
 0003:00001180       __cast_$Classjava_awt_Window 00422180
 0003:000011B0       __cast_$Classjava_awt_Frame 004221B0
 0003:000011E0       __cast_$ClassPowerCase     004221E0
 0003:00001210       __vtbl_$ClassEditarDepositoDialog 00422210
 0003:00001550       _$ClassEditarDepositoDialog_9SymWindow 00422550
 0003:00001740       __vtbl_$ClassEditarDepositoDialog_9SymWindow 00422740
 0003:00001790       _$ClassEditarDepositoDialog_9SymAction 00422790
 0003:00001930       __vtbl_$ClassEditarDepositoDialog_9SymAction 00422930
 0003:00001970       _$ClassEditarDepositoDialog_9SymFocus 00422970
 0003:00001B50       __vtbl_$ClassEditarDepositoDialog_9SymFocus 00422B50
 0003:00001F00       _$ClassSelecionarDepositoDialog 00422F00
 0003:00002660       __vtbl_$ClassSelecionarDepositoDialog 00423660
 0003:000029B0       _$ClassSelecionarDepositoDialog_9SymWindow 004239B0
 0003:00002B70       __vtbl_$ClassSelecionarDepositoDialog_9SymWindow 00423B70
 0003:00002BC0       _$ClassSelecionarDepositoDialog_9SymAction 00423BC0
 0003:00002D70       __vtbl_$ClassSelecionarDepositoDialog_9SymAction 00423D70
 0003:00002DB0       _$ClassSelecionarDepositoDialog_9SymMouse 00423DB0
 0003:00002F70       __vtbl_$ClassSelecionarDepositoDialog_9SymMouse 00423F70
 0003:00003040       _$ClassSplashWindow        00424040
 0003:000032A0       __vtbl_$ClassSplashWindow  004242A0
 0003:000035A0       _$ClassSplashWindow_9SymMouse 004245A0
 0003:00003730       __vtbl_$ClassSplashWindow_9SymMouse 00424730
 0003:00003B00       _$ClassSelecionarEntidadeDialog 00424B00
 0003:00004260       __vtbl_$ClassSelecionarEntidadeDialog 00425260
 0003:000045B0       _$ClassSelecionarEntidadeDialog_9SymWindow 004255B0
 0003:00004770       __vtbl_$ClassSelecionarEntidadeDialog_9SymWindow 00425770
 0003:000047C0       _$ClassSelecionarEntidadeDialog_9SymAction 004257C0
 0003:00004970       __vtbl_$ClassSelecionarEntidadeDialog_9SymAction 00425970
 0003:000049B0       _$ClassSelecionarEntidadeDialog_9SymMouse 004259B0
 0003:00004B70       __vtbl_$ClassSelecionarEntidadeDialog_9SymMouse 00425B70
 0003:000050D0       _$ClassEditarProjetoDialog 004260D0
 0003:000057B0       __vtbl_$ClassEditarProjetoDialog 004267B0
 0003:00005AE0       _$ClassEditarProjetoDialog_9SymWindow 00426AE0
 0003:00005C90       __vtbl_$ClassEditarProjetoDialog_9SymWindow 00426C90
 0003:00005CE0       _$ClassEditarProjetoDialog_9SymAction 00426CE0
 0003:00005E80       __vtbl_$ClassEditarProjetoDialog_9SymAction 00426E80
 0003:00005EC0       _$ConfirmarSalvarDialog_CANCELAR 00426EC0
 0003:00005EC4       _$ConfirmarSalvarDialog_NAO 00426EC4
 0003:00005EC8       _$ConfirmarSalvarDialog_SIM 00426EC8
 0003:00006030       _$ClassConfirmarSalvarDialog 00427030
 0003:000064C0       __vtbl_$ClassConfirmarSalvarDialog 004274C0
 0003:000067F0       _$ClassConfirmarSalvarDialog_9SymWindow 004277F0
 0003:000069B0       __vtbl_$ClassConfirmarSalvarDialog_9SymWindow 004279B0
 0003:00006A00       _$ClassConfirmarSalvarDialog_9SymAction 00427A00
 0003:00006BA0       __vtbl_$ClassConfirmarSalvarDialog_9SymAction 00427BA0
 0003:00007C60       _$ClassPowerCase           00428C60
 0003:00008F30       __cast_$ClassYourdon_Projeto 00429F30
 0003:00008F60       __vtbl_$ClassPowerCase     00429F60
 0003:00009320       _$ClassPowerCase_9SymWindow 0042A320
 0003:000094F0       __vtbl_$ClassPowerCase_9SymWindow 0042A4F0
 0003:00009540       _$ClassPowerCase_9SymAction 0042A540
 0003:000096C0       __vtbl_$ClassPowerCase_9SymAction 0042A6C0
 0003:00009920       _$ClassAboutDialog         0042A920
 0003:00009CB0       __vtbl_$ClassAboutDialog   0042ACB0
 0003:00009FD0       _$ClassAboutDialog_9SymWindow 0042AFD0
 0003:0000A170       __vtbl_$ClassAboutDialog_9SymWindow 0042B170
 0003:0000A1C0       _$ClassAboutDialog_9SymAction 0042B1C0
 0003:0000A340       __vtbl_$ClassAboutDialog_9SymAction 0042B340
 0003:0000A4C0       _$ClassQuitDialog          0042B4C0
 0003:0000A810       __vtbl_$ClassQuitDialog    0042B810
 0003:0000AB30       _$ClassQuitDialog_9SymWindow 0042BB30
 0003:0000ACD0       __vtbl_$ClassQuitDialog_9SymWindow 0042BCD0
 0003:0000AD20       _$ClassQuitDialog_9SymAction 0042BD20
 0003:0000AEA0       __vtbl_$ClassQuitDialog_9SymAction 0042BEA0
 0003:0000B6A0       _$ClassDFDDialog           0042C6A0
 0003:0000C060       __vtbl_$ClassDFDDialog     0042D060
 0003:0000C3B0       _$ClassDFDDialog_9SymWindow 0042D3B0
 0003:0000C580       __vtbl_$ClassDFDDialog_9SymWindow 0042D580
 0003:0000C5D0       _$ClassDFDDialog_9SymAction 0042D5D0
 0003:0000C750       __vtbl_$ClassDFDDialog_9SymAction 0042D750
 0003:0000C790       _$ClassYourdon_Projeto     0042D790
 0003:0000CCA0       __vtbl_$ClassYourdon_Projeto 0042DCA0
 0003:0000CD70       _$ClassYourdon_Diagrama    0042DD70
 0003:0000D470       __cast_$Classjava_util_Enumeration 0042E470
 0003:0000D4A0       __cast_$ClassYourdon_Simbolo 0042E4A0
 0003:0000D4D0       __cast_$ClassYourdon_Entidade 0042E4D0
 0003:0000D500       __cast_$ClassYourdon_Processo 0042E500
 0003:0000D530       __cast_$ClassYourdon_SimboloMovel 0042E530
 0003:0000D560       __cast_$ClassYourdon_SimboloProcesso 0042E560
 0003:0000D590       __cast_$ClassYourdon_SimboloFluxo 0042E590
 0003:0000D5C0       __vtbl_$ClassYourdon_Diagrama 0042E5C0
 0003:0000D650       _$ClassYourdon_ElementoEssencial 0042E650
 0003:0000D7D0       __vtbl_$ClassYourdon_ElementoEssencial 0042E7D0
 0003:0000D850       _$ClassYourdon_SimboloEntidade 0042E850
 0003:0000D980       __vtbl_$ClassYourdon_SimboloEntidade 0042E980
 0003:0000D9E0       _$ClassYourdon_Entidade    0042E9E0
 0003:0000DAC0       __vtbl_$ClassYourdon_Entidade 0042EAC0
 0003:0000DB00       _$ClassYourdon_SimboloMovel 0042EB00
 0003:0000DC40       __vtbl_$ClassYourdon_SimboloMovel 0042EC40
 0003:0000DCA0       _$Yourdon_Simbolo_MAXTAMTEXTO 0042ECA0
 0003:0000DCA4       _$Yourdon_Simbolo_FLUXO    0042ECA4
 0003:0000DCA8       _$Yourdon_Simbolo_DEPOSITO 0042ECA8
 0003:0000DCAC       _$Yourdon_Simbolo_PROCESSO 0042ECAC
 0003:0000DCB0       _$Yourdon_Simbolo_ENTIDADE 0042ECB0
 0003:0000DCC0       _$ClassYourdon_Simbolo     0042ECC0
 0003:0000E170       __vtbl_$ClassYourdon_Simbolo 0042F170
 0003:0000E210       _$ClassYourdon_ListaEntidades 0042F210
 0003:0000E3F0       __vtbl_$ClassYourdon_ListaEntidades 0042F3F0
 0003:0000E440       _$ClassYourdon_ListaElementos 0042F440
 0003:0000E560       __vtbl_$ClassYourdon_ListaElementos 0042F560
 0003:0000E5F0       _$ClassYourdon_ListaProcessos 0042F5F0
 0003:0000E770       __vtbl_$ClassYourdon_ListaProcessos 0042F770
 0003:0000EE60       _$ClassContextoDialog      0042FE60
 0003:0000F760       __vtbl_$ClassContextoDialog 00430760
 0003:0000FAB0       _$ClassContextoDialog_9SymWindow 00430AB0
 0003:0000FC90       __vtbl_$ClassContextoDialog_9SymWindow 00430C90
 0003:0000FCE0       _$ClassContextoDialog_9SymAction 00430CE0
 0003:0000FE70       __vtbl_$ClassContextoDialog_9SymAction 00430E70
 0003:000101D0       _$ClassEntidadesDialog     004311D0
 0003:000108A0       __vtbl_$ClassEntidadesDialog 004318A0
 0003:00010BF0       _$ClassEntidadesDialog_9SymWindow 00431BF0
 0003:00010DE0       __vtbl_$ClassEntidadesDialog_9SymWindow 00431DE0
 0003:00010E30       _$ClassEntidadesDialog_9SymAction 00431E30
 0003:00010FC0       __vtbl_$ClassEntidadesDialog_9SymAction 00431FC0
 0003:00011000       _$ClassEntidadesDialog_9SymMouse 00432000
 0003:000111A0       __vtbl_$ClassEntidadesDialog_9SymMouse 004321A0
 0003:00011750       _$ClassEventosDialog       00432750
 0003:00011FF0       __vtbl_$ClassEventosDialog 00432FF0
 0003:00012350       _$ClassEventosDialog_9SymWindow 00433350
 0003:00012530       __vtbl_$ClassEventosDialog_9SymWindow 00433530
 0003:00012580       _$ClassEventosDialog_9SymAction 00433580
 0003:00012710       __vtbl_$ClassEventosDialog_9SymAction 00433710
 0003:00012750       _$ClassEventosDialog_9SymItem 00433750
 0003:000128E0       __vtbl_$ClassEventosDialog_9SymItem 004338E0
 0003:00012920       _$ClassEventosDialog_9SymMouse 00433920
 0003:00012AB0       __vtbl_$ClassEventosDialog_9SymMouse 00433AB0
 0003:00012EF0       _$ClassEditarEventoDialog  00433EF0
 0003:00013810       __vtbl_$ClassEditarEventoDialog 00434810
 0003:00013B60       _$ClassEditarEventoDialog_9SymWindow 00434B60
 0003:00013D10       __vtbl_$ClassEditarEventoDialog_9SymWindow 00434D10
 0003:00013D60       _$ClassEditarEventoDialog_9SymAction 00434D60
 0003:00013F00       __vtbl_$ClassEditarEventoDialog_9SymAction 00434F00
 0003:00013F40       _$ClassEditarEventoDialog_9SymItem 00434F40
 0003:000140E0       __vtbl_$ClassEditarEventoDialog_9SymItem 004350E0
 0003:00014120       _$ClassEditarEventoDialog_9SymFocus 00435120
 0003:000142F0       __vtbl_$ClassEditarEventoDialog_9SymFocus 004352F0
 0003:00014330       _$DiagramaCanvas_CRIARFLUXO 00435330
 0003:00014334       _$DiagramaCanvas_CRIARDEPOSITO 00435334
 0003:00014338       _$DiagramaCanvas_CRIARPROCESSO 00435338
 0003:0001433C       _$DiagramaCanvas_CRIARENTIDADE 0043533C
 0003:00014340       _$DiagramaCanvas_SELECIONAR 00435340
 0003:00014450       _$ClassDiagramaCanvas      00435450
 0003:00014B50       __cast_$ClassYourdon_Fluxo 00435B50
 0003:00014B80       __vtbl_$ClassDiagramaCanvas 00435B80
 0003:00014E00       _$ClassDiagramaCanvas_9DiagramaCanvasMouseListener 00435E00
 0003:00014FF0       __vtbl_$ClassDiagramaCanvas_9DiagramaCanvasMouseListener 00435FF0
 0003:00015040       _$ClassDiagramaCanvas_9DiagramaCanvasMouseMotionListener 00436040
 0003:000151E0       __vtbl_$ClassDiagramaCanvas_9DiagramaCanvasMouseMotionListener 004361E0
 0003:000154D0       _$ClassEditarEntidadeDialog 004364D0
 0003:00015AA0       __vtbl_$ClassEditarEntidadeDialog 00436AA0
 0003:00015DE0       _$ClassEditarEntidadeDialog_9SymWindow 00436DE0
 0003:00015FD0       __vtbl_$ClassEditarEntidadeDialog_9SymWindow 00436FD0
 0003:00016020       _$ClassEditarEntidadeDialog_9SymAction 00437020
 0003:000161C0       __vtbl_$ClassEditarEntidadeDialog_9SymAction 004371C0
 0003:00016200       _$ClassEditarEntidadeDialog_9SymFocus 00437200
 0003:000163E0       __vtbl_$ClassEditarEntidadeDialog_9SymFocus 004373E0
 0003:00016790       _$ClassEditarFluxoDialog   00437790
 0003:00016E30       __vtbl_$ClassEditarFluxoDialog 00437E30
 0003:00017170       _$ClassEditarFluxoDialog_9SymWindow 00438170
 0003:00017360       __vtbl_$ClassEditarFluxoDialog_9SymWindow 00438360
 0003:000173B0       _$ClassEditarFluxoDialog_9SymAction 004383B0
 0003:00017550       __vtbl_$ClassEditarFluxoDialog_9SymAction 00438550
 0003:00017590       _$ClassEditarFluxoDialog_9SymFocus 00438590
 0003:00017760       __vtbl_$ClassEditarFluxoDialog_9SymFocus 00438760
 0003:000177A0       _$ClassYourdon_ListaFluxos 004387A0
 0003:00017920       __vtbl_$ClassYourdon_ListaFluxos 00438920
 0003:00017970       _$Yourdon_Fluxo_BIDIRECIONAL 00438970
 0003:00017974       _$Yourdon_Fluxo_INVERTIDO  00438974
 0003:00017978       _$Yourdon_Fluxo_NORMAL     00438978
 0003:00017980       _$ClassYourdon_Fluxo       00438980
 0003:00017B10       __vtbl_$ClassYourdon_Fluxo 00438B10
 0003:00017BA0       _$ClassYourdon_SimboloFluxo 00438BA0
 0003:00017DF0       __vtbl_$ClassYourdon_SimboloFluxo 00438DF0
 0003:00017E80       _$ClassYourdon_ListaEventos 00438E80
 0003:000180D0       __cast_$ClassYourdon_Evento 004390D0
 0003:00018100       __vtbl_$ClassYourdon_ListaEventos 00439100
 0003:00018460       _$ClassEditarProcessoDialog 00439460
 0003:00018B30       __vtbl_$ClassEditarProcessoDialog 00439B30
 0003:00018E80       _$ClassEditarProcessoDialog_9SymWindow 00439E80
 0003:00019070       __vtbl_$ClassEditarProcessoDialog_9SymWindow 0043A070
 0003:000190C0       _$ClassEditarProcessoDialog_9SymAction 0043A0C0
 0003:00019260       __vtbl_$ClassEditarProcessoDialog_9SymAction 0043A260
 0003:000192A0       _$ClassEditarProcessoDialog_9SymFocus 0043A2A0
 0003:00019480       __vtbl_$ClassEditarProcessoDialog_9SymFocus 0043A480
 0003:000194C0       _$ClassYourdon_Evento      0043A4C0
 0003:00019780       __vtbl_$ClassYourdon_Evento 0043A780
 0003:000198B0       _$ClassYourdon_Processo    0043A8B0
 0003:00019BA0       __vtbl_$ClassYourdon_Processo 0043ABA0
 0003:00019D10       _$ClassYourdon_SimboloProcesso 0043AD10
 0003:00019ED0       __vtbl_$ClassYourdon_SimboloProcesso 0043AED0
 0003:00019F24       ___wildcard                0043AF24
 0003:00019F28       __jrtused                  0043AF28
 0003:0001A0A4       __pctype                   0043B0A4
 0003:0001A0A8       __pwctype                  0043B0A8
 0003:0001A0AC       __ctype                    0043B0AC
 0003:0001A2B0       ___locale_mbsize           0043B2B0
 0003:0001A2B4       ___locale_codepage         0043B2B4
 0003:0001A2B8       ___locale_ident            0043B2B8
 0003:0001A330       ___locale_decimal_const    0043B330
 0003:0001A334       ___locale_decpoint         0043B334
 0003:0001A484       roundto0                   0043B484
 0003:0001A488       __80x87                    0043B488
 0003:0001A488       __8087                     0043B488
 0003:0001A48C       ___locale_chars            0043B48C
 0003:0001A4A8       ___thdtbl                  0043B4A8
 0003:0001A4C4       ?pMainHeap@RTLMultiPool@@0PAV1@A 0043B4C4
 0003:0001A5E4       __atexitp                  0043B5E4
 0003:0001A5E8       __atexit_max               0043B5E8
 0003:0001A5EA       __tab_size                 0043B5EA
 0003:0001A5EC       __cpumode                  0043B5EC
 0003:0001A5EE       __pgmptr                   0043B5EE
 0003:0001A5F2       __wpgmptr                  0043B5F2
 0003:0001A5F6       __osver                    0043B5F6
 0003:0001A5FA       __winver                   0043B5FA
 0003:0001A5FA       __winminor                 0043B5FA
 0003:0001A5FB       __winmajor                 0043B5FB
 0003:0001A5FE       __osmode                   0043B5FE
 0003:0001A629       __envptr                   0043B629
 0003:0001A62D       __wenvptr                  0043B62D
 0003:0001A631       ___argc                    0043B631
 0003:0001A631       __argc                     0043B631
 0003:0001A635       ___argv                    0043B635
 0003:0001A635       __argv                     0043B635
 0003:0001A639       __wargv                    0043B639
 0003:0001A639       ___wargv                   0043B639
 0003:0001A63D       _FE_DFL_ENV                0043B63D
 0003:0001A647       __thread1                  0043B647
 0003:0001A657       _errno                     0043B657
 0003:0001A68F       __fe_cur_env               0043B68F
 0003:0001A6D3       __doserrno                 0043B6D3
 0003:0001A713       __cppeh_sv                 0043B713
 0003:0001A8DC       ___rtl_criticalsection     0043B8DC
 0003:0001A8F4       ?pPools@RTLPool@@0PAV1@A   0043B8F4
 0003:0001A8F8       ?pMainHeap@RTLHeap@@0PAV1@A 0043B8F8
 0003:0001A904       __acrtused_con             0043B904
 0003:0001A91C       ___terminate_done          0043B91C
 0003:0001A920       __environ                  0043B920
 0003:0001A924       __wenviron                 0043B924
 0003:0001A928       ___init_environ_ptr        0043B928
 0003:0001A940       __acmdln                   0043B940
 0003:0001A944       __atopsp                   0043B944
 0003:0001A950       ___fp_sigfunc              0043B950
 0003:0001A954       ___sigill_sigfunc          0043B954
 0003:0001A958       ___sigsegv_sigfunc         0043B958
 0003:0001A9A8       ___ve_debughook            0043B9A8
 0003:0001A9B0       ___init_mbctype_ptr        0043B9B0
 0003:0001A9B4       __mbctype                  0043B9B4
 0003:0001AAB8       ___mbcpinfo                0043BAB8
 0003:0001AABC       ___mbcodepage              0043BABC
 0003:0001AAC0       ___mblcid                  0043BAC0
 0003:0001ABAC       ___mb_cpinfo               0043BBAC
 0003:0001AC4C       ___mb_cpinfoN              0043BC4C
 0003:0001ADB0       _$PowerCase_HELP           0043BDB0
 0003:0001ADB4       _$DFDDialog_areaDesenho    0043BDB4
 0003:0001ADB8       _$Yourdon_Simbolo_BORDA    0043BDB8
 0003:0001ADBC       _$Yourdon_Simbolo_BORDAHERDADO 0043BDBC
 0003:0001ADC0       _$Yourdon_Simbolo_TEXTO    0043BDC0
 0003:0001ADC4       _$Yourdon_Simbolo_SELECIONADOHERDADO 0043BDC4
 0003:0001ADC8       _$Yourdon_Simbolo_NORMALHERDADO 0043BDC8
 0003:0001ADCC       _$Yourdon_Simbolo_NORMAL   0043BDCC
 0003:0001ADD0       _$Yourdon_Simbolo_SELECIONADO 0043BDD0
 0003:0001ADD4       _$ContextoDialog_areaDesenho 0043BDD4
 0003:0001ADD8       _$DiagramaCanvas_CURSOR_1CRIAR 0043BDD8
 0003:0001ADDC       _$DiagramaCanvas_CURSOR_1SELECIONAR 0043BDDC
 0003:0001ADE0       _$Yourdon_SimboloFluxo_NORMAL 0043BDE0
 0003:0001AE00       __edata                    0043BE00
 0003:0001AE00       _edata                     0043BE00
 0003:0001B4B4       __atexit_tbl               0043C4B4
 0003:0001B5C0       ___wpscanfloat             0043C5C0
 0003:0001B5C4       ___wpfloatfmt              0043C5C4
 0003:0001B5C8       ___pscanfloat              0043C5C8
 0003:0001B5CC       ___pfloatfmt               0043C5CC
 0003:0001B5D0       _fdiv_chk_flag             0043C5D0
 0003:0001B5D4       __iSemLockCtrs             0043C5D4
 0003:0001B6E8       __hdlSemHandles            0043C6E8
 0003:0001B910       ___cpp_init_ptr            0043C910
 0003:0001B914       ___module_handle           0043C914
 0003:0001B918       __iSemNestCount            0043C918
 0003:0001BB40       __iSemThreadIds            0043CB40
 0003:0001BD68       __hookexitp                0043CD68
 0003:0001BD6C       __fcloseallp               0043CD6C
 0003:0001BD70       ?exitval@@3HA              0043CD70
 0003:0001BD74       __szSemPrefix              0043CD74
 0003:0001BD80       __end                      0043CD80
 0003:0001BD80       _end                       0043CD80

Line numbers for D:\Desen\VisualCaf\PowerCase\Yourdon\Deposito.obj(Yourdon\Deposito.java) segment _TEXT

     7 0002:00400018     9 0002:00400027    10 0002:00400033

Line numbers for D:\Desen\VisualCaf\PowerCase\Yourdon\ListaDepositos.obj(Yourdon\ListaDepositos.java) segment _TEXT

     7 0002:00400038     9 0002:00400047    10 0002:0040004E    11 0002:00400054
    12 0002:00400058    16 0002:00400091    20 0002:004000B9    22 0002:004000BB
    24 0002:004000D4    28 0002:0040010D    32 0002:00400134    34 0002:00400136
    35 0002:00400154    37 0002:00400164    38 0002:00400171    39 0002:00400178
    41 0002:00400187    42 0002:0040018F    43 0002:00400194    47 0002:004001A5
    48 0002:004001BC    50 0002:004001CC

Line numbers for D:\Desen\VisualCaf\PowerCase\Yourdon\SimboloDeposito.obj(Yourdon\SimboloDeposito.java) segment _TEXT

     7 0002:004001D4     9 0002:004001E3    10 0002:004001F7    11 0002:004001FC
    16 0002:0040020E    18 0002:00400235    21 0002:00400253    24 0002:00400262
    25 0002:0040026A    28 0002:004002AF    29 0002:004002D3    31 0002:004002E8
    32 0002:004002FF    34 0002:00400319    35 0002:00400329    36 0002:00400342
    38 0002:0040035E    39 0002:00400378    40 0002:0040039A

Line numbers for D:\Desen\VisualCaf\PowerCase\EditarDepositoDialog.obj(EditarDepositoDialog.java) segment _TEXT

    13 0002:004003A4    15 0002:004003B3    16 0002:004003C2    17 0002:004003C4
    19 0002:004003D3    20 0002:004003DC    22 0002:004003E0    24 0002:004003F1
    25 0002:00400419    26 0002:00400420    28 0002:00400432    30 0002:0040043D
    32 0002:00400449    33 0002:004004A0    35 0002:004004C1    36 0002:004004C8
    38 0002:004004DA   110 0002:004004E6    46 0002:004004F1    47 0002:00400507
    48 0002:00400514    49 0002:0040052C    50 0002:00400550    51 0002:00400573
    52 0002:00400591    53 0002:004005A1    54 0002:004005BC    55 0002:004005DD
    56 0002:004005ED    57 0002:00400608    58 0002:00400624    59 0002:00400641
    60 0002:00400664    61 0002:00400671    62 0002:0040068C    63 0002:004006A8
    64 0002:004006C2    65 0002:004006EB    66 0002:004006FB    67 0002:00400716
    68 0002:00400732    69 0002:0040074F    70 0002:00400778    71 0002:00400788
    72 0002:0040079D    76 0002:004007AA    77 0002:004007C1    78 0002:004007CC
    79 0002:004007E3    80 0002:004007F2    81 0002:00400801    82 0002:00400813
    83 0002:0040082A    85 0002:00400839    87 0002:00400840    90 0002:00400852
    92 0002:0040085E    98 0002:00400877    99 0002:004008DB   100 0002:004008E9
   102 0002:00400902   103 0002:00400939   104 0002:0040096D   106 0002:004009AD
   107 0002:004009B7   113 0002:004009BC   115 0002:004009CC   116 0002:004009D8
   117 0002:004009ED   124 0002:004009F4   126 0002:00400A06   128 0002:00400A0C
   129 0002:00400A2B   131 0002:00400A3C   132 0002:00400A58   134 0002:00400A7B
   135 0002:00400A86   162 0002:00400A90   164 0002:00400AA0   165 0002:00400AAC
   181 0002:00400AB4   183 0002:00400AC3   184 0002:00400ACC   186 0002:00400AD0
   188 0002:00400AE1   189 0002:00400AF1   190 0002:00400AFF   192 0002:00400B08
   194 0002:00400B17   195 0002:00400B20   197 0002:00400B24   201 0002:00400B58
   202 0002:00400B79   206 0002:00400BC7   225 0002:00400BE4   227 0002:00400BF3
   228 0002:00400C02   230 0002:00400C08   232 0002:00400C18   233 0002:00400C2C

Line numbers for D:\Desen\VisualCaf\PowerCase\EditarDepositoDialog$SymWindow.obj(EditarDepositoDialog.java) segment _TEXT

   147 0002:00400C34   149 0002:00400C45   150 0002:00400C51   151 0002:00400C5A
   152 0002:00400C72   154 0002:00400C78   156 0002:00400C89   157 0002:00400C95
   158 0002:00400C9E   159 0002:00400CB6   145 0002:00400CBC    11 0002:00400CD9
     0 0002:00400CDE

Line numbers for D:\Desen\VisualCaf\PowerCase\EditarDepositoDialog$SymAction.obj(EditarDepositoDialog.java) segment _TEXT

   169 0002:00400CE4   171 0002:00400CF6   172 0002:00400D02   173 0002:00400D13
   174 0002:00400D27   175 0002:00400D39   176 0002:00400D4D   177 0002:00400D5F
   178 0002:00400D71   167 0002:00400D78    11 0002:00400D95     0 0002:00400D9A

Line numbers for D:\Desen\VisualCaf\PowerCase\EditarDepositoDialog$SymFocus.obj(EditarDepositoDialog.java) segment _TEXT

   210 0002:00400DA0   212 0002:00400DB2   213 0002:00400DBE   214 0002:00400DCF
   215 0002:00400DE1   217 0002:00400DE8   219 0002:00400DFA   220 0002:00400E06
   221 0002:00400E17   222 0002:00400E29   208 0002:00400E30    11 0002:00400E4D
     0 0002:00400E52

Line numbers for D:\Desen\VisualCaf\PowerCase\SelecionarDepositoDialog.obj(SelecionarDepositoDialog.java) segment _TEXT

    11 0002:00400E58    16 0002:00400E69    17 0002:00400E7B    18 0002:00400E84
    19 0002:00400E9C    20 0002:00400EA8    22 0002:00400EC6    23 0002:00400ED2
    24 0002:00400EE4    25 0002:00400EE8    29 0002:00400EF9    31 0002:00400F10
    32 0002:00400F2D    34 0002:00400F40    35 0002:00400F52    36 0002:00400F60
    37 0002:00400F64    42 0002:00400F75    43 0002:00400F87    45 0002:00400F90
    47 0002:00400FA6    49 0002:00400FCF    50 0002:00400FDB    51 0002:00400FEE
    54 0002:00400FF4    58 0002:00401005    60 0002:00401014    61 0002:00401026
    63 0002:0040102C    64 0002:0040104B    66 0002:0040105F    68 0002:00401074
    69 0002:00401078    71 0002:00401089    72 0002:00401094    73 0002:004010A0
    74 0002:004010AB    75 0002:004010B4    76 0002:004010C3    78 0002:004010CC
    80 0002:004010DE   168 0002:004010EA    88 0002:004010F5    89 0002:0040110B
    90 0002:00401118    91 0002:00401130    92 0002:00401154    93 0002:00401172
    94 0002:00401180    95 0002:0040119A    96 0002:004011BD    97 0002:004011D8
    98 0002:004011EE    99 0002:00401208   100 0002:0040122B   101 0002:0040123B
   102 0002:00401256   103 0002:00401272   104 0002:0040128F   105 0002:004012B8
   106 0002:004012C8   107 0002:004012E3   108 0002:004012FF   109 0002:0040131C
   110 0002:00401345   111 0002:00401355   112 0002:00401370   113 0002:0040138C
   114 0002:004013A9   115 0002:004013D2   116 0002:004013E2   117 0002:004013FD
   118 0002:00401419   119 0002:00401436   120 0002:0040145F   121 0002:0040146F
   122 0002:0040148A   123 0002:004014A6   124 0002:004014C6   125 0002:004014EF
   126 0002:004014FF   127 0002:00401514   131 0002:00401521   132 0002:00401538
   133 0002:00401543   134 0002:0040155A   135 0002:00401566   136 0002:00401578
   137 0002:0040158A   138 0002:0040159C   139 0002:004015AE   140 0002:004015C5
   141 0002:004015D1   143 0002:004015E6   145 0002:004015F0   148 0002:00401602
   150 0002:0040160E   156 0002:00401627   157 0002:0040168B   158 0002:00401699
   160 0002:004016B2   161 0002:004016E9   162 0002:0040171D   164 0002:0040175D
   165 0002:00401767   171 0002:0040176C   173 0002:0040177C   174 0002:00401788
   175 0002:0040179D   182 0002:004017A4   184 0002:004017B6   186 0002:004017BC
   187 0002:004017DB   189 0002:004017EC   190 0002:00401808   192 0002:0040182B
   193 0002:00401836   215 0002:00401840   217 0002:00401850   218 0002:0040185C
   220 0002:00401864   224 0002:00401875   225 0002:00401887   227 0002:00401890
   228 0002:004018A9   229 0002:004018B5   231 0002:004018BC   233 0002:004018CB
   234 0002:004018D4   256 0002:004018D8   258 0002:004018E7   259 0002:004018F0
   261 0002:004018F4   263 0002:00401903   264 0002:0040190C   265 0002:00401910
   267 0002:0040191F   268 0002:00401928   270 0002:0040192C   272 0002:0040193B
   273 0002:00401944   275 0002:00401948   277 0002:00401957   278 0002:00401960
   290 0002:00401964   292 0002:00401974   293 0002:0040198E   295 0002:00401994
   299 0002:004019C8   300 0002:004019E9   304 0002:00401A37

Line numbers for D:\Desen\VisualCaf\PowerCase\SelecionarDepositoDialog$SymWindow.obj(SelecionarDepositoDialog.java) segment _TEXT

   207 0002:00401A54   209 0002:00401A65   210 0002:00401A71   211 0002:00401A7A
   212 0002:00401A92   205 0002:00401A98     8 0002:00401AB5     0 0002:00401ABA

Line numbers for D:\Desen\VisualCaf\PowerCase\SelecionarDepositoDialog$SymAction.obj(SelecionarDepositoDialog.java) segment _TEXT

   238 0002:00401AC0   240 0002:00401AD2   241 0002:00401ADE   242 0002:00401AEF
   243 0002:00401B06   244 0002:00401B18   245 0002:00401B2F   246 0002:00401B41
   247 0002:00401B58   248 0002:00401B6A   249 0002:00401B7E   250 0002:00401B90
   251 0002:00401BA4   252 0002:00401BB6   253 0002:00401BC8   236 0002:00401BD0
     8 0002:00401BED     0 0002:00401BF2

Line numbers for D:\Desen\VisualCaf\PowerCase\SelecionarDepositoDialog$SymMouse.obj(SelecionarDepositoDialog.java) segment _TEXT

   282 0002:00401BF8   284 0002:00401C0A   285 0002:00401C16   286 0002:00401C27
   287 0002:00401C39   280 0002:00401C40     8 0002:00401C5D     0 0002:00401C62

Line numbers for D:\Desen\VisualCaf\PowerCase\SplashWindow.obj(SplashWindow.java) segment _TEXT

    13 0002:00401C68    15 0002:00401C95    63 0002:00401C9E    22 0002:00401CA8
    23 0002:00401CBB    24 0002:00401CD0    26 0002:00401CF0    30 0002:00401D1E
    31 0002:00401D41    35 0002:00401D52    36 0002:00401D69    38 0002:00401D78
    40 0002:00401D94    43 0002:00401DA6    45 0002:00401DB2    51 0002:00401DCB
    52 0002:00401E2F    53 0002:00401E3D    55 0002:00401E56    56 0002:00401E8D
    57 0002:00401EC1    59 0002:00401F01    60 0002:00401F0B    68 0002:00401F10
    70 0002:00401F22    72 0002:00401F2C    74 0002:00401F46    75 0002:00401F65
    77 0002:00401F76    78 0002:00401F92    80 0002:00401FB5    83 0002:00401FC5
    86 0002:00401FDB    87 0002:00401FE6    99 0002:00401FF0   101 0002:00402001
   102 0002:0040202C   103 0002:00402038

Line numbers for D:\Desen\VisualCaf\PowerCase\SplashWindow$SymMouse.obj(SplashWindow.java) segment _TEXT

    91 0002:00402040    93 0002:00402052    94 0002:0040205E    95 0002:0040206F
    96 0002:00402081    89 0002:00402088    11 0002:004020A5     0 0002:004020AA

Line numbers for D:\Desen\VisualCaf\PowerCase\SelecionarEntidadeDialog.obj(SelecionarEntidadeDialog.java) segment _TEXT

    11 0002:004020B0    16 0002:004020C1    17 0002:004020D3    18 0002:004020DC
    19 0002:004020F4    20 0002:00402100    22 0002:0040211E    23 0002:0040212A
    24 0002:0040213C    25 0002:00402140    29 0002:00402151    31 0002:00402168
    32 0002:00402185    34 0002:00402198    35 0002:004021AA    36 0002:004021B8
    37 0002:004021BC    42 0002:004021CD    43 0002:004021DF    45 0002:004021E8
    47 0002:004021FE    49 0002:00402227    50 0002:00402233    51 0002:00402246
    54 0002:0040224C    58 0002:0040225D    60 0002:0040226C    61 0002:0040227E
    63 0002:00402284    64 0002:004022A3    66 0002:004022B7    68 0002:004022CC
    69 0002:004022D0    71 0002:004022E1    72 0002:004022EC    73 0002:004022F8
    74 0002:00402303    75 0002:0040230C    76 0002:0040231B    78 0002:00402324
    80 0002:00402336   168 0002:00402342    88 0002:0040234D    89 0002:00402363
    90 0002:00402370    91 0002:00402388    92 0002:004023AC    93 0002:004023CA
    94 0002:004023D8    95 0002:004023F2    96 0002:00402415    97 0002:00402430
    98 0002:00402446    99 0002:00402460   100 0002:00402483   101 0002:00402493
   102 0002:004024AE   103 0002:004024CA   104 0002:004024E7   105 0002:00402510
   106 0002:00402520   107 0002:0040253B   108 0002:00402557   109 0002:00402574
   110 0002:0040259D   111 0002:004025AD   112 0002:004025C8   113 0002:004025E4
   114 0002:00402601   115 0002:0040262A   116 0002:0040263A   117 0002:00402655
   118 0002:00402671   119 0002:0040268E   120 0002:004026B7   121 0002:004026C7
   122 0002:004026E2   123 0002:004026FE   124 0002:0040271E   125 0002:00402747
   126 0002:00402757   127 0002:0040276C   131 0002:00402779   132 0002:00402790
   133 0002:0040279B   134 0002:004027B2   135 0002:004027BE   136 0002:004027D0
   137 0002:004027E2   138 0002:004027F4   139 0002:00402806   140 0002:0040281D
   141 0002:00402829   143 0002:0040283E   145 0002:00402848   148 0002:0040285A
   150 0002:00402866   156 0002:0040287F   157 0002:004028E3   158 0002:004028F1
   160 0002:0040290A   161 0002:00402941   162 0002:00402975   164 0002:004029B5
   165 0002:004029BF   171 0002:004029C4   173 0002:004029D4   174 0002:004029E0
   175 0002:004029F5   182 0002:004029FC   184 0002:00402A0E   186 0002:00402A14
   187 0002:00402A33   189 0002:00402A44   190 0002:00402A60   192 0002:00402A83
   193 0002:00402A8E   215 0002:00402A98   217 0002:00402AA8   218 0002:00402AB4
   220 0002:00402ABC   222 0002:00402ACB   223 0002:00402AD4   245 0002:00402AD8
   249 0002:00402AE9   250 0002:00402AFB   252 0002:00402B04   253 0002:00402B1D
   254 0002:00402B29   256 0002:00402B30   258 0002:00402B3F   259 0002:00402B48
   261 0002:00402B4C   263 0002:00402B5B   264 0002:00402B64   265 0002:00402B68
   267 0002:00402B77   268 0002:00402B80   270 0002:00402B84   272 0002:00402B93
   273 0002:00402B9C   275 0002:00402BA0   277 0002:00402BAF   278 0002:00402BB8
   290 0002:00402BBC   292 0002:00402BCC   293 0002:00402BE6   295 0002:00402BEC
   299 0002:00402C20   300 0002:00402C41   304 0002:00402C8F

Line numbers for D:\Desen\VisualCaf\PowerCase\SelecionarEntidadeDialog$SymWindow.obj(SelecionarEntidadeDialog.java) segment _TEXT

   207 0002:00402CAC   209 0002:00402CBD   210 0002:00402CC9   211 0002:00402CD2
   212 0002:00402CEA   205 0002:00402CF0     8 0002:00402D0D     0 0002:00402D12

Line numbers for D:\Desen\VisualCaf\PowerCase\SelecionarEntidadeDialog$SymAction.obj(SelecionarEntidadeDialog.java) segment _TEXT

   227 0002:00402D18   229 0002:00402D2A   230 0002:00402D36   231 0002:00402D47
   232 0002:00402D5E   233 0002:00402D70   234 0002:00402D87   235 0002:00402D99
   236 0002:00402DB0   237 0002:00402DC2   238 0002:00402DD6   239 0002:00402DE8
   240 0002:00402DFC   241 0002:00402E0E   242 0002:00402E20   225 0002:00402E28
     8 0002:00402E45     0 0002:00402E4A

Line numbers for D:\Desen\VisualCaf\PowerCase\SelecionarEntidadeDialog$SymMouse.obj(SelecionarEntidadeDialog.java) segment _TEXT

   282 0002:00402E50   284 0002:00402E62   285 0002:00402E6E   286 0002:00402E7F
   287 0002:00402E91   280 0002:00402E98     8 0002:00402EB5     0 0002:00402EBA

Line numbers for D:\Desen\VisualCaf\PowerCase\EditarProjetoDialog.obj(EditarProjetoDialog.java) segment _TEXT

    16 0002:00402EC0    18 0002:00402ED2    20 0002:00402EDD    22 0002:00402EFB
    24 0002:00402F09    26 0002:00402F59    27 0002:00402F8B    29 0002:00402FB7
    32 0002:00402FD3    33 0002:00402FFA    34 0002:00403018    35 0002:00403036
    36 0002:00403057   106 0002:004036E8   107 0002:004036FD   108 0002:00403723
   109 0002:00403733   110 0002:00403759   111 0002:0040377D   112 0002:0040378D
   113 0002:004037A2   120 0002:004037AF   121 0002:004037C6   122 0002:004037D1
   123 0002:004037E8   124 0002:004037F4   125 0002:00403806   127 0002:00403818
    37 0002:00403060    39 0002:00403072   176 0002:0040307E    47 0002:00403089
    48 0002:004030A2    49 0002:004030B2    50 0002:004030CD    51 0002:004030F4
    52 0002:00403117    53 0002:0040313B    54 0002:0040314E    55 0002:00403169
    56 0002:00403193    57 0002:004031A6    58 0002:004031C1    59 0002:004031D6
    60 0002:004031F3    61 0002:00403203    62 0002:0040320E    63 0002:00403234
    64 0002:00403252    65 0002:00403262    66 0002:00403292    67 0002:004032B3
    68 0002:004032C3    69 0002:004032E9    70 0002:0040330A    71 0002:0040331A
    72 0002:00403340    73 0002:00403361    74 0002:00403371    75 0002:0040338C
    76 0002:004033AD    77 0002:004033BA    78 0002:004033E0    79 0002:00403404
    80 0002:00403414    81 0002:00403444    82 0002:00403468    83 0002:00403478
    84 0002:00403493    85 0002:004034AF    86 0002:004034C9    87 0002:004034EC
    88 0002:004034F9    89 0002:00403514    90 0002:00403530    91 0002:00403550
    92 0002:00403579    93 0002:00403589    94 0002:004035A4    95 0002:004035BA
    96 0002:004035DD    97 0002:00403600    98 0002:0040360D    99 0002:00403628
   100 0002:0040363D   101 0002:00403663   102 0002:00403673   103 0002:00403699
   104 0002:004036BD   105 0002:004036CD   129 0002:00403820   131 0002:00403830
   132 0002:0040383B   133 0002:00403850   140 0002:00403858   142 0002:0040386A
   144 0002:00403870   145 0002:0040388F   147 0002:004038A0   148 0002:004038BC
   150 0002:004038DF   151 0002:004038EA   153 0002:004038F4   156 0002:00403906
   158 0002:00403912   164 0002:0040392B   165 0002:0040398F   166 0002:0040399D
   168 0002:004039B6   169 0002:004039ED   170 0002:00403A21   172 0002:00403A61
   173 0002:00403A6B   211 0002:00403A70   213 0002:00403A80   214 0002:00403A8C
   231 0002:00403A94   233 0002:00403AA6   234 0002:00403ACE   235 0002:00403AEA
   236 0002:00403B06   240 0002:00403B1F   243 0002:00403B32   244 0002:00403B40
   246 0002:00403B48   250 0002:00403B59   253 0002:00403B6A   254 0002:00403B78
   256 0002:00403B80   260 0002:00403BB4   261 0002:00403BD5   265 0002:00403C23

Line numbers for D:\Desen\VisualCaf\PowerCase\EditarProjetoDialog$SymWindow.obj(EditarProjetoDialog.java) segment _TEXT

   203 0002:00403C40   205 0002:00403C51   206 0002:00403C5D   207 0002:00403C66
   208 0002:00403C7E   201 0002:00403C84    11 0002:00403CA1     0 0002:00403CA6

Line numbers for D:\Desen\VisualCaf\PowerCase\EditarProjetoDialog$SymAction.obj(EditarProjetoDialog.java) segment _TEXT

   218 0002:00403CAC   220 0002:00403CBE   221 0002:00403CCA   222 0002:00403CDB
   223 0002:00403CEF   224 0002:00403D01   225 0002:00403D15   226 0002:00403D27
   227 0002:00403D39   216 0002:00403D40    11 0002:00403D5D     0 0002:00403D62

Line numbers for D:\Desen\VisualCaf\PowerCase\ConfirmarSalvarDialog.obj(ConfirmarSalvarDialog.java) segment _TEXT

     8 0002:00403D68    10 0002:00403D78    11 0002:00403D83    12 0002:00403D9F
    13 0002:00403DA4    16 0002:00403DB9    22 0002:00403DBC    25 0002:00403DCE
   113 0002:00403DDA    33 0002:00403DE5    34 0002:00403DFB    35 0002:00403E08
    36 0002:00403E20    37 0002:00403E44    38 0002:00403E5C    39 0002:00403E72
    40 0002:00403E89    41 0002:00403E99    42 0002:00403EB4    43 0002:00403ECA
    44 0002:00403EE4    45 0002:00403EF4    46 0002:00403F20    47 0002:00403F3E
    48 0002:00403F4E    49 0002:00403F69    50 0002:00403F85    51 0002:00403FA2
    52 0002:00403FB2    53 0002:00403FC7    57 0002:00403FD4    58 0002:00403FEB
    59 0002:00403FF6    60 0002:0040400D    61 0002:00404019    62 0002:00404028
    64 0002:0040403D    66 0002:00404044    69 0002:00404056    71 0002:00404062
    77 0002:0040407B    78 0002:004040DF    79 0002:004040ED    81 0002:00404106
    82 0002:0040413D    83 0002:00404171    85 0002:004041B1    86 0002:004041BB
    88 0002:004041C0    90 0002:004041D0    91 0002:004041DC    92 0002:004041F1
    99 0002:004041F8   101 0002:0040420A   103 0002:00404210   104 0002:0040422F
   106 0002:00404240   107 0002:0040425C   109 0002:0040427F   110 0002:0040428A
   131 0002:00404294   133 0002:004042A4   134 0002:004042BA   135 0002:004042C3
   150 0002:004042C8   152 0002:004042D8   153 0002:004042EE   154 0002:004042F7
   155 0002:004042FC   157 0002:0040430C   158 0002:00404322   159 0002:0040432B
   160 0002:00404330   162 0002:00404340   163 0002:00404356   164 0002:0040435F

Line numbers for D:\Desen\VisualCaf\PowerCase\ConfirmarSalvarDialog$SymWindow.obj(ConfirmarSalvarDialog.java) segment _TEXT

   124 0002:00404364   126 0002:00404375   127 0002:00404381   128 0002:0040438A
   129 0002:004043A2   122 0002:004043A8     6 0002:004043C5     0 0002:004043CA

Line numbers for D:\Desen\VisualCaf\PowerCase\ConfirmarSalvarDialog$SymAction.obj(ConfirmarSalvarDialog.java) segment _TEXT

   139 0002:004043D0   141 0002:004043E2   142 0002:004043EE   143 0002:004043FF
   144 0002:00404413   145 0002:00404425   146 0002:00404439   147 0002:0040444B
   148 0002:0040445D   137 0002:00404464     6 0002:00404481     0 0002:00404486

Line numbers for D:\Desen\VisualCaf\PowerCase\PowerCase.obj(PowerCase.java) segment _TEXT

    19 0002:0040448C    21 0002:0040449C    22 0002:004044CE    26 0002:004044D4
    28 0002:00404501    32 0002:00404522    33 0002:00404536    34 0002:00404541
    40 0002:0040455E    43 0002:00404578    49 0002:00404594    54 0002:004045C1
    57 0002:004045CA    61 0002:004045EF    62 0002:00404606    63 0002:00404614
    64 0002:00404622    65 0002:0040463E    66 0002:00404651    68 0002:0040465C
    69 0002:00404670    71 0002:00404688    75 0002:004046D1    76 0002:004046F3
    77 0002:0040470A    78 0002:00404727    80 0002:00404730    81 0002:0040474F
    83 0002:00404762    84 0002:00404772    91 0002:004047C9    93 0002:004047E3
    94 0002:004047FC    97 0002:0040480E    98 0002:0040481E    99 0002:00404831
   100 0002:00404841   101 0002:00404851   102 0002:00404861   103 0002:00404871
   104 0002:00404881   105 0002:00404891   109 0002:004048A1   110 0002:004048B1
   111 0002:004048C1   112 0002:004048D1   113 0002:004048E1   114 0002:004048F1
   115 0002:00404901   116 0002:00404911   117 0002:00404918   119 0002:00404945
   120 0002:0040494E   124 0002:00404973   125 0002:0040498A   126 0002:00404998
   127 0002:004049A6   128 0002:004049C2   129 0002:004049D5   131 0002:004049E0
   132 0002:004049F4   134 0002:00404A09   138 0002:00404A52   139 0002:00404A75
   144 0002:00404A90   147 0002:00404AAA   148 0002:00404AC4   152 0002:00404AF1
   154 0002:00404B0E   158 0002:00404B3C   159 0002:00404B50   160 0002:00404B5B
   161 0002:00404B77   162 0002:00404B8D   168 0002:00404BAF   171 0002:00404BC9
   172 0002:00404BE4   178 0002:00404C11   181 0002:00404C2B   182 0002:00404C42
   184 0002:00404C53   189 0002:00404C70   201 0002:00404CB0   202 0002:00404CBD
   204 0002:00404CC6   205 0002:00404CD7   207 0002:00404CDD   209 0002:00404CE9
   211 0002:00404CF6   212 0002:00404D09   219 0002:00404D37   220 0002:00404D50
   222 0002:00404D61   225 0002:00404D6A   228 0002:00404D84   229 0002:00404D99
   231 0002:00404DAE   232 0002:00404DC9   233 0002:00404DDF   235 0002:00404E2A
   477 0002:004061FE   478 0002:00406227   479 0002:00406256   480 0002:0040626E
   481 0002:00406297   482 0002:004062A9   483 0002:004062D2   484 0002:004062E4
   485 0002:0040630D   486 0002:0040631F   487 0002:00406348   488 0002:0040635A
   489 0002:00406365   490 0002:0040638E   491 0002:004063A0   492 0002:004063B1
   493 0002:004063DA   494 0002:004063EF   495 0002:00406418   496 0002:00406430
   497 0002:00406459   498 0002:00406471   499 0002:00406488   504 0002:0040649E
   505 0002:004064B8   506 0002:004064C6   507 0002:004064E0   508 0002:004064F2
   509 0002:00406513   510 0002:00406528   511 0002:0040653D   512 0002:00406556
   513 0002:0040656B   514 0002:00406580   515 0002:0040658F   516 0002:004065A4
   517 0002:004065B9   518 0002:004065D2   519 0002:004065EB   520 0002:00406604
   521 0002:00406617   522 0002:0040662C   523 0002:00406641   524 0002:00406654
   525 0002:00406669   526 0002:0040667C   527 0002:0040668F   528 0002:004066A2
   529 0002:004066B7   530 0002:004066CA   533 0002:004066DF   534 0002:004066F7
   535 0002:00406710   356 0002:004057A7   358 0002:004057CA   363 0002:00405823
   366 0002:00405861   367 0002:0040588D   368 0002:004058AB   370 0002:004058CE
   375 0002:00405927   378 0002:00405965   379 0002:00405991   380 0002:004059AF
   382 0002:004059D2   387 0002:00405A2B   390 0002:00405A69   391 0002:00405A95
   392 0002:00405AB3   394 0002:00405AD6   399 0002:00405B2F   402 0002:00405B6D
   403 0002:00405B99   404 0002:00405BB7   406 0002:00405BDA   410 0002:00405C15
   414 0002:00405C50   418 0002:00405C8E   422 0002:00405CD4   426 0002:00405D12
   430 0002:00405D50   434 0002:00405D8E   438 0002:00405DCC   442 0002:00405E0A
   445 0002:00405E3C   446 0002:00405E6B   447 0002:00405EA1   448 0002:00405EC4
   449 0002:00405EEE   450 0002:00405F0C   451 0002:00405F24   452 0002:00405F3E
   453 0002:00405F5F   457 0002:00405F7D   458 0002:00405F9B   459 0002:00405FCA
   460 0002:00405FF9   461 0002:0040601A   462 0002:0040603A   463 0002:00406063
   464 0002:00406090   465 0002:004060B0   466 0002:004060D9   467 0002:004060EB
   468 0002:004060F6   469 0002:0040611F   470 0002:0040614C   471 0002:0040616C
   472 0002:00406195   473 0002:004061A7   474 0002:004061B2   475 0002:004061DB
   476 0002:004061ED   477 0002:004061FE   237 0002:00404E30   585 0002:00404E6E
    24 0002:00404E7E    25 0002:00404E88    45 0002:00404E93    46 0002:00404E9D
   239 0002:00404EAB   240 0002:00404EC8   250 0002:00404ED7   251 0002:00404F03
   252 0002:00404F10   253 0002:00404F28   254 0002:00404F4C   255 0002:00404F71
   256 0002:00404F8F   257 0002:00404FAC   259 0002:00404FC3   260 0002:00404FE8
   261 0002:00405006   262 0002:00405023   264 0002:0040503A   266 0002:0040505D
   270 0002:00405094   274 0002:004050D2   278 0002:00405110   281 0002:00405145
   282 0002:0040516B   283 0002:0040518E   284 0002:004051B0   286 0002:004051D3
   291 0002:00405220   294 0002:00405252   295 0002:0040527B   296 0002:00405299
   298 0002:004052BC   303 0002:00405315   306 0002:00405353   307 0002:0040537C
   308 0002:0040539A   310 0002:004053BD   315 0002:00405416   318 0002:00405454
   319 0002:0040547D   320 0002:0040549B   322 0002:004054BE   327 0002:00405517
   330 0002:00405555   331 0002:00405581   332 0002:0040559F   334 0002:004055C2
   339 0002:0040561B   342 0002:00405659   343 0002:00405685   344 0002:004056A3
   346 0002:004056C6   351 0002:0040571F   354 0002:0040575D   355 0002:00405789
   537 0002:0040672C   539 0002:0040673C   540 0002:00406741   541 0002:00406756
   548 0002:0040675C   550 0002:0040676C   552 0002:00406772   554 0002:00406788
   555 0002:00406793   557 0002:00406798   559 0002:0040679F   560 0002:004067BD
   562 0002:004067C0   565 0002:004067D2   567 0002:004067DE   573 0002:004067F7
   574 0002:0040685B   575 0002:00406869   577 0002:00406882   578 0002:004068B9
   579 0002:004068ED   581 0002:0040692D   582 0002:00406937   642 0002:0040693C
   644 0002:0040694D   646 0002:00406961   647 0002:00406971   648 0002:0040697C
   649 0002:00406983   707 0002:0040698C   709 0002:0040699C   710 0002:004069A8
   716 0002:004069CB   717 0002:004069D0   721 0002:004069E0   723 0002:00406A05
   724 0002:00406A0C   726 0002:00406A1B   728 0002:00406A24   729 0002:00406A28
   731 0002:00406A39   732 0002:00406A6B   733 0002:00406A74   735 0002:00406A84
   736 0002:00406A94   737 0002:00406A9C   739 0002:00406AAB   740 0002:00406AB4
   741 0002:00406AB8   743 0002:00406AC7   744 0002:00406AD0   745 0002:00406AD4
   747 0002:00406AE4   748 0002:00406AF2   749 0002:00406AFE   750 0002:00406B04
   752 0002:00406B13   753 0002:00406B1C   754 0002:00406B20   756 0002:00406B2F
   757 0002:00406B38   758 0002:00406B3C   760 0002:00406B4C   761 0002:00406B5C
   762 0002:00406B64   764 0002:00406B74   765 0002:00406B84   766 0002:00406B8C
   768 0002:00406B9C   769 0002:00406BAC   770 0002:00406BB4   772 0002:00406BC4
   773 0002:00406BD4   774 0002:00406BDC   776 0002:00406BEC   777 0002:00406C18
   779 0002:00406C20   781 0002:00406C31   782 0002:00406C3A   783 0002:00406C88
   785 0002:00406C90   787 0002:00406CA0   788 0002:00406CCC   790 0002:00406CD4
   792 0002:00406CE4   793 0002:00406CF4   795 0002:00406CFC   797 0002:00406D0D
   798 0002:00406D3E   800 0002:00406D44   802 0002:00406D54   803 0002:00406D64
   805 0002:00406D6C   807 0002:00406D7C   808 0002:00406D8C   810 0002:00406D94
   812 0002:00406DA4   813 0002:00406DB4   815 0002:00406DBC   818 0002:00406DC3
   820 0002:00406DC8   822 0002:00406DD8   823 0002:00406DE8   825 0002:00406DF0
   829 0002:00406E24   830 0002:00406E31   833 0002:00406E7D

Line numbers for D:\Desen\VisualCaf\PowerCase\PowerCase$SymWindow.obj(PowerCase.java) segment _TEXT

   628 0002:00406E98   630 0002:00406EA9   631 0002:00406EB5   632 0002:00406EBE
   633 0002:00406ED6   635 0002:00406EDC   637 0002:00406EED   638 0002:00406EF9
   639 0002:00406F02   640 0002:00406F1A   626 0002:00406F20    16 0002:00406F3D
     0 0002:00406F42

Line numbers for D:\Desen\VisualCaf\PowerCase\PowerCase$SymAction.obj(PowerCase.java) segment _TEXT

   696 0002:00407299   697 0002:004072AB   698 0002:004072C2   699 0002:004072D4
   700 0002:004072E8   701 0002:004072FA   702 0002:0040730E   703 0002:00407320
   705 0002:0040734A   653 0002:00406F48   655 0002:00406F5A   656 0002:00406F66
   657 0002:00406F77   658 0002:00406F8E   659 0002:00406FA0   660 0002:00406FB7
   661 0002:00406FC9   662 0002:00406FE0   663 0002:00406FF2   664 0002:00407009
   665 0002:0040701B   666 0002:00407032   667 0002:00407044   668 0002:0040705B
   669 0002:0040706D   670 0002:00407084   671 0002:00407096   672 0002:004070AD
   673 0002:004070BF   674 0002:004070D6   675 0002:004070E8   676 0002:004070FF
   677 0002:00407111   678 0002:00407128   679 0002:0040713A   680 0002:00407151
   681 0002:00407163   682 0002:0040717A   683 0002:0040718C   684 0002:004071A3
   685 0002:004071B5   686 0002:004071CC   687 0002:004071DE   688 0002:004071F5
   689 0002:00407207   690 0002:0040721E   691 0002:00407230   692 0002:00407247
   693 0002:00407259   694 0002:00407270   695 0002:00407282   651 0002:00407354
    16 0002:00407371     0 0002:00407376

Line numbers for D:\Desen\VisualCaf\PowerCase\AboutDialog.obj(AboutDialog.java) segment _TEXT

    10 0002:0040737C    12 0002:0040738E   111 0002:0040739A    21 0002:004073A5
    22 0002:004073BB    23 0002:004073C8    24 0002:004073E0    25 0002:00407404
    26 0002:00407427    27 0002:00407445    28 0002:00407455    29 0002:00407470
    30 0002:0040748C    31 0002:004074AF    32 0002:004074BF    33 0002:004074E5
    34 0002:00407506    35 0002:00407516    36 0002:0040753C    37 0002:0040755D
    38 0002:0040756D    39 0002:00407593    40 0002:004075B4    41 0002:004075C4
    42 0002:004075EA    43 0002:0040760B    44 0002:0040761B    48 0002:00407630
    49 0002:00407647    50 0002:00407652    51 0002:00407669    54 0002:0040767B
    56 0002:00407684    58 0002:00407694    59 0002:004076A0    60 0002:004076B5
    62 0002:004076BC    65 0002:004076CE    67 0002:004076DA    74 0002:004076F3
    75 0002:00407757    76 0002:00407765    78 0002:0040777E    79 0002:004077B5
    80 0002:004077E9    84 0002:00407829    85 0002:00407833    87 0002:00407838
    89 0002:0040784A    91 0002:00407850    92 0002:0040786F    94 0002:00407880
    95 0002:0040789C    98 0002:004078BF    99 0002:004078CA   123 0002:004078D4
   125 0002:004078E3   126 0002:004078EC   138 0002:004078F0   142 0002:004078FF
   144 0002:00407908

Line numbers for D:\Desen\VisualCaf\PowerCase\AboutDialog$SymWindow.obj(AboutDialog.java) segment _TEXT

   115 0002:0040790C   117 0002:0040791D   118 0002:00407929   119 0002:00407932
   120 0002:0040794A   113 0002:00407950     8 0002:0040796D     0 0002:00407972

Line numbers for D:\Desen\VisualCaf\PowerCase\AboutDialog$SymAction.obj(AboutDialog.java) segment _TEXT

   130 0002:00407978   132 0002:0040798A   133 0002:00407996   134 0002:004079A7
   135 0002:004079B9   128 0002:004079C0     8 0002:004079DD     0 0002:004079E2

Line numbers for D:\Desen\VisualCaf\PowerCase\QuitDialog.obj(QuitDialog.java) segment _TEXT

    10 0002:004079E8    12 0002:004079FA    94 0002:00407A06    20 0002:00407A11
    21 0002:00407A27    22 0002:00407A34    23 0002:00407A4C    24 0002:00407A70
    25 0002:00407A88    26 0002:00407A9E    27 0002:00407AB5    28 0002:00407AC5
    29 0002:00407AE0    30 0002:00407AF6    31 0002:00407B10    32 0002:00407B20
    33 0002:00407B4C    34 0002:00407B6A    35 0002:00407B7A    39 0002:00407B8F
    40 0002:00407BA6    41 0002:00407BB1    42 0002:00407BC8    43 0002:00407BD4
    45 0002:00407BE6    47 0002:00407BF0    50 0002:00407C02    52 0002:00407C0E
    58 0002:00407C27    59 0002:00407C8B    60 0002:00407C99    62 0002:00407CB2
    63 0002:00407CE9    64 0002:00407D1D    66 0002:00407D5D    67 0002:00407D67
    69 0002:00407D6C    71 0002:00407D7C    72 0002:00407D88    73 0002:00407D9D
    80 0002:00407DA4    82 0002:00407DB6    84 0002:00407DBC    85 0002:00407DDB
    87 0002:00407DEC    88 0002:00407E08    90 0002:00407E2B    91 0002:00407E36
   112 0002:00407E40   114 0002:00407E4F   115 0002:00407E58   129 0002:00407E5C
   131 0002:00407E6D   132 0002:00407EB8   133 0002:00407EC6   135 0002:00407ECC
   137 0002:00407EDB   138 0002:00407EE4

Line numbers for D:\Desen\VisualCaf\PowerCase\QuitDialog$SymWindow.obj(QuitDialog.java) segment _TEXT

   104 0002:00407EE8   106 0002:00407EF9   107 0002:00407F05   108 0002:00407F0E
   109 0002:00407F26   102 0002:00407F2C     8 0002:00407F49     0 0002:00407F4E

Line numbers for D:\Desen\VisualCaf\PowerCase\QuitDialog$SymAction.obj(QuitDialog.java) segment _TEXT

   119 0002:00407F54   121 0002:00407F66   122 0002:00407F72   123 0002:00407F83
   124 0002:00407F97   125 0002:00407FA9   126 0002:00407FBB   117 0002:00407FC4
     8 0002:00407FE1     0 0002:00407FE6

Line numbers for D:\Desen\VisualCaf\PowerCase\DFDDialog.obj(DFDDialog.java) segment _TEXT

    17 0002:00407FEC    19 0002:00407FFE    21 0002:00408047    23 0002:00408071
    24 0002:0040807D    27 0002:00408086    28 0002:004080BC    29 0002:004080DB
    32 0002:00408108    34 0002:0040811D    35 0002:00408141   172 0002:00408BA4
   173 0002:00408BCD   174 0002:00408BE8   175 0002:00408C06   176 0002:00408C27
   177 0002:00408C4D   178 0002:00408C6B   182 0002:00408C80   183 0002:00408C97
   184 0002:00408CA2   185 0002:00408CB9   186 0002:00408CCC   187 0002:00408CE8
   188 0002:00408CFB   189 0002:00408D0E   190 0002:00408D21   191 0002:00408D34
   192 0002:00408D47   193 0002:00408D5A   194 0002:00408D6D   196 0002:00408D7F
    36 0002:00408148    38 0002:00408178   221 0002:00408184    46 0002:0040818F
    47 0002:004081BB    48 0002:004081CB    49 0002:004081E6    50 0002:0040820D
    51 0002:00408225    52 0002:00408249    53 0002:0040826C    54 0002:0040828A
    56 0002:004082AA    61 0002:004082E1    64 0002:00408310    65 0002:00408336
    66 0002:00408351    68 0002:00408371    73 0002:004083C7    76 0002:00408402
    77 0002:00408428    78 0002:00408443    80 0002:00408463    85 0002:004084B9
    88 0002:004084F4    89 0002:0040851A    90 0002:00408535    92 0002:00408555
    97 0002:004085AB   100 0002:004085E6   101 0002:0040860F   102 0002:0040862A
   104 0002:0040864A   109 0002:004086A0   112 0002:004086DB   113 0002:00408704
   114 0002:0040871F   116 0002:0040873F   121 0002:00408795   124 0002:004087D0
   125 0002:004087F9   126 0002:00408814   128 0002:00408834   133 0002:0040888A
   136 0002:004088C5   137 0002:004088EE   138 0002:00408909   140 0002:00408929
   145 0002:0040897F   148 0002:004089BA   149 0002:004089E3   150 0002:004089FE
   152 0002:00408A1E   157 0002:00408A74   160 0002:00408AAF   161 0002:00408AD8
   162 0002:00408AF3   164 0002:00408B13   169 0002:00408B69   198 0002:00408D9C
   201 0002:00408DAE   203 0002:00408DBA   209 0002:00408DD3   210 0002:00408E37
   211 0002:00408E45   213 0002:00408E5E   214 0002:00408E95   215 0002:00408EC9
   217 0002:00408F09   218 0002:00408F13   224 0002:00408F18   226 0002:00408F28
   227 0002:00408F34   228 0002:00408F49   230 0002:00408F50   232 0002:00408F62
   234 0002:00408F68   235 0002:00408F87   237 0002:00408F98   238 0002:00408FB4
   240 0002:00408FD7   241 0002:00408FE2   278 0002:00408FEC   280 0002:00408FFC
   281 0002:00409008   311 0002:00409010   313 0002:00409020   314 0002:00409032
   316 0002:00409038   318 0002:00409047   319 0002:00409056   321 0002:0040905C
   323 0002:0040906C   324 0002:00409081   326 0002:00409088   328 0002:00409098
   329 0002:004090AD   331 0002:004090B4   333 0002:004090C4   334 0002:004090D9
   336 0002:004090E0   338 0002:004090F0   339 0002:00409105   341 0002:0040910C
   343 0002:0040911B   344 0002:0040912A   346 0002:00409130   348 0002:0040913F
   349 0002:0040914E   351 0002:00409154   353 0002:00409165   354 0002:00409174
   355 0002:004091C6   357 0002:004091CC   359 0002:004091DD   360 0002:0040922D
   361 0002:0040923F   363 0002:00409248   367 0002:0040927C   368 0002:0040929D
   372 0002:004092EB    12 0002:00409308    14 0002:0040930B

Line numbers for D:\Desen\VisualCaf\PowerCase\DFDDialog$SymWindow.obj(DFDDialog.java) segment _TEXT

   263 0002:00409330   265 0002:00409341   266 0002:0040934D   267 0002:00409356
   268 0002:0040936E   270 0002:00409374   272 0002:00409385   273 0002:00409391
   274 0002:0040939A   275 0002:004093B2   261 0002:004093B8    12 0002:004093D5
     0 0002:004093DA

Line numbers for D:\Desen\VisualCaf\PowerCase\DFDDialog$SymAction.obj(DFDDialog.java) segment _TEXT

   285 0002:004093E0   287 0002:004093F2   288 0002:004093FE   289 0002:0040940F
   290 0002:00409426   291 0002:00409438   292 0002:0040944F   293 0002:00409461
   294 0002:00409478   295 0002:0040948A   296 0002:004094A1   297 0002:004094B3
   298 0002:004094CA   299 0002:004094DC   300 0002:004094F3   301 0002:00409505
   302 0002:0040951C   303 0002:0040952E   304 0002:00409542   305 0002:00409554
   306 0002:00409568   307 0002:0040957A   308 0002:0040958C   283 0002:00409594
    12 0002:004095B1     0 0002:004095B6

Line numbers for D:\Desen\VisualCaf\PowerCase\Yourdon\Projeto.obj(Yourdon\Projeto.java) segment _TEXT

    12 0002:004095BC    14 0002:004095CB    15 0002:004095D1    16 0002:004095D8
    19 0002:004095EA    21 0002:004095EC    23 0002:004095FB    24 0002:00409601
    25 0002:00409608    27 0002:00409617    28 0002:0040961D    29 0002:00409624
    32 0002:00409636    33 0002:00409638    36 0002:0040964A    37 0002:0040964C
    40 0002:0040965E    44 0002:00409660    46 0002:0040966F    47 0002:00409675
    48 0002:0040967C    51 0002:0040968E    53 0002:00409690    55 0002:004096A1
    56 0002:004096B3    57 0002:004096BC    59 0002:004096CD    60 0002:004096DB
    63 0002:004096E0    65 0002:004096F7    66 0002:0040970D    67 0002:00409725
    68 0002:0040973B    69 0002:0040974E    71 0002:00409761    72 0002:0040977B
    74 0002:004097A6    75 0002:004097C4    76 0002:004097DA    77 0002:004097F3

Line numbers for D:\Desen\VisualCaf\PowerCase\Yourdon\Diagrama.obj(Yourdon\Diagrama.java) segment _TEXT

     9 0002:004097F8    13 0002:00409809    15 0002:0040982F    17 0002:00409852
    18 0002:0040985C    20 0002:00409869    24 0002:0040987E    25 0002:00409884
    27 0002:00409895    29 0002:004098B0    32 0002:004098CD    36 0002:004098F3
    40 0002:00409919    43 0002:0040993D    44 0002:00409944    51 0002:00409971
    52 0002:0040997A    56 0002:00409996    61 0002:004099AF    65 0002:004099C0
    67 0002:004099DE    70 0002:00409A00    73 0002:00409A25    77 0002:00409A59
    78 0002:00409A7C    79 0002:00409A86    81 0002:00409A9F    82 0002:00409AAC
    95 0002:00409AE9    97 0002:00409AF6    98 0002:00409B10   102 0002:00409B21
   104 0002:00409B27   105 0002:00409B3B   107 0002:00409B44   108 0002:00409B52
   109 0002:00409B5B   110 0002:00409B64   112 0002:00409B74   113 0002:00409B86
   114 0002:00409B8C   119 0002:00409B9D   122 0002:00409BBA   123 0002:00409BC8
   124 0002:00409BD0   126 0002:00409BE1   129 0002:00409BE8   131 0002:00409BFE
   133 0002:00409C1D   135 0002:00409C28   136 0002:00409C38   137 0002:00409C40
   140 0002:00409C58   142 0002:00409C65   143 0002:00409C74   146 0002:00409C80
   148 0002:00409C88   149 0002:00409C90   155 0002:00409CA1   156 0002:00409CAF
   158 0002:00409CC8   160 0002:00409CD9   162 0002:00409CEB   164 0002:00409CFB
   166 0002:00409D0B   167 0002:00409D20   168 0002:00409D28   171 0002:00409D44
   173 0002:00409D57   174 0002:00409D6C   175 0002:00409D74   179 0002:00409D90
   180 0002:00409D98   185 0002:00409DC5   186 0002:00409DD2   189 0002:00409DE8
   190 0002:00409E07   192 0002:00409E19   193 0002:00409E28   196 0002:00409E2D
   200 0002:00409E39   202 0002:00409E40   204 0002:00409E5C   206 0002:00409E6C
   207 0002:00409E81   208 0002:00409E88   212 0002:00409E99   214 0002:00409EB9
   216 0002:00409EC5   218 0002:00409ED6   219 0002:00409EE4   220 0002:00409EF9
   222 0002:00409F1A   223 0002:00409F28   224 0002:00409F3D   226 0002:00409F5E
   227 0002:00409F64   229 0002:00409F75   231 0002:00409F7F   233 0002:00409F93
   235 0002:00409FA7   236 0002:00409FAD   237 0002:00409FB4   239 0002:00409FC4
   240 0002:00409FD6   241 0002:00409FDC   246 0002:00409FED   249 0002:0040A00A
   250 0002:0040A018   252 0002:0040A020   257 0002:0040A031   260 0002:0040A04E
   261 0002:0040A05C   262 0002:0040A064   264 0002:0040A074   265 0002:0040A086
   266 0002:0040A08C   268 0002:0040A0A1   269 0002:0040A0B7   270 0002:0040A0BF
   271 0002:0040A0C4   274 0002:0040A0D4   288 0002:0040A0E4   289 0002:0040A0EC
   296 0002:0040A0FD   298 0002:0040A103   299 0002:0040A117   304 0002:0040A120
   305 0002:0040A131   307 0002:0040A137   308 0002:0040A156   310 0002:0040A167
   311 0002:0040A175   314 0002:0040A186   318 0002:0040A18B   319 0002:0040A18D
   320 0002:0040A194   323 0002:0040A1A6   325 0002:0040A1A8   330 0002:0040A1B9
   331 0002:0040A1C6   332 0002:0040A1D5   333 0002:0040A1F4   335 0002:0040A206

Line numbers for D:\Desen\VisualCaf\PowerCase\Yourdon\ElementoEssencial.obj(Yourdon\ElementoEssencial.java) segment _TEXT

     6 0002:0040A20C     8 0002:0040A21B     9 0002:0040A220    10 0002:0040A224
    13 0002:0040A235    14 0002:0040A238    16 0002:0040A24D    17 0002:0040A258

Line numbers for D:\Desen\VisualCaf\PowerCase\Yourdon\SimboloEntidade.obj(Yourdon\SimboloEntidade.java) segment _TEXT

     7 0002:0040A260     9 0002:0040A26F    10 0002:0040A283    11 0002:0040A288
    16 0002:0040A29A    18 0002:0040A2C1    21 0002:0040A2DF    24 0002:0040A2EE
    25 0002:0040A2F6    28 0002:0040A33B    29 0002:0040A35F    31 0002:0040A374
    32 0002:0040A38B    34 0002:0040A3A5    35 0002:0040A3B5    37 0002:0040A3CF
    38 0002:0040A3E9    39 0002:0040A412

Line numbers for D:\Desen\VisualCaf\PowerCase\Yourdon\Entidade.obj(Yourdon\Entidade.java) segment _TEXT

     7 0002:0040A41C     9 0002:0040A42B    10 0002:0040A437

Line numbers for D:\Desen\VisualCaf\PowerCase\Yourdon\SimboloMovel.obj(Yourdon\SimboloMovel.java) segment _TEXT

     7 0002:0040A43C    11 0002:0040A44E    12 0002:0040A462    14 0002:0040A475
    15 0002:0040A480    17 0002:0040A48F    19 0002:0040A49F    20 0002:0040A4AC
    22 0002:0040A4BC    24 0002:0040A4CD    25 0002:0040A4E4    26 0002:0040A4EC
    28 0002:0040A4FB    29 0002:0040A50A    30 0002:0040A53F

Line numbers for D:\Desen\VisualCaf\PowerCase\Yourdon\Simbolo.obj(Yourdon\Simbolo.java) segment _TEXT

    11 0002:0040A544    13 0002:0040A55A    14 0002:0040A563    15 0002:0040A569
    18 0002:0040A573    19 0002:0040A589    23 0002:0040A59D    24 0002:0040A5B2
    26 0002:0040A5C8    28 0002:0040A5D0    30 0002:0040A5E1    31 0002:0040A5E7
    32 0002:0040A5F4    34 0002:0040A60C    36 0002:0040A624    37 0002:0040A631
    39 0002:0040A649    40 0002:0040A65F    49 0002:0040A668    52 0002:0040A67A
    54 0002:0040A67C    57 0002:0040A68E    64 0002:0040A690    66 0002:0040A6A0
    67 0002:0040A6AD    68 0002:0040A6B4    70 0002:0040A6C4    71 0002:0040A6D4
    73 0002:0040A6DC    77 0002:0040A6ED    78 0002:0040A703    80 0002:0040A715
    81 0002:0040A72A     7 0002:0040A730    41 0002:0040A735    42 0002:0040A74C
    43 0002:0040A764    44 0002:0040A77B    45 0002:0040A7A0    46 0002:0040A7B8
    47 0002:0040A7D0

Line numbers for D:\Desen\VisualCaf\PowerCase\Yourdon\ListaEntidades.obj(Yourdon\ListaEntidades.java) segment _TEXT

     7 0002:0040A7EC     9 0002:0040A7FC    10 0002:0040A809    11 0002:0040A810
    15 0002:0040A849    19 0002:0040A870    21 0002:0040A872    23 0002:0040A890
    27 0002:0040A8C9    31 0002:0040A8F1    33 0002:0040A8F3    34 0002:0040A90C
    36 0002:0040A91B    37 0002:0040A922    38 0002:0040A928    39 0002:0040A92C
    41 0002:0040A93B    42 0002:0040A943    43 0002:0040A948    47 0002:0040A959
    48 0002:0040A970    50 0002:0040A980

Line numbers for D:\Desen\VisualCaf\PowerCase\Yourdon\ListaElementos.obj(Yourdon\ListaElementos.java) segment _TEXT

     8 0002:0040A988    10 0002:0040A99C    11 0002:0040A9B4    12 0002:0040A9B8
    14 0002:0040A9C7    15 0002:0040A9D0

Line numbers for D:\Desen\VisualCaf\PowerCase\Yourdon\ListaProcessos.obj(Yourdon\ListaProcessos.java) segment _TEXT

     7 0002:0040A9D4     9 0002:0040A9E5    10 0002:0040A9F0    12 0002:0040AA02
    13 0002:0040AA12    14 0002:0040AA18    18 0002:0040AA29    19 0002:0040AA43
    21 0002:0040AA53    23 0002:0040AA5C    25 0002:0040AA6B    29 0002:0040AA70
    30 0002:0040AA94

Line numbers for D:\Desen\VisualCaf\PowerCase\ContextoDialog.obj(ContextoDialog.java) segment _TEXT

    17 0002:0040AA98    19 0002:0040AAAA    21 0002:0040AAF3    23 0002:0040AB1D
    24 0002:0040AB29    27 0002:0040AB32    28 0002:0040AB68    29 0002:0040AB87
    32 0002:0040ABB4    34 0002:0040ABC9    35 0002:0040ABED   157 0002:0040B4EF
    36 0002:0040ABF4    38 0002:0040AC24   182 0002:0040AC30    46 0002:0040AC3B
    47 0002:0040AC67    48 0002:0040AC77    49 0002:0040AC92    50 0002:0040ACB9
    51 0002:0040ACD1    52 0002:0040ACF5    53 0002:0040AD18    54 0002:0040AD36
    56 0002:0040AD56    61 0002:0040AD8D    64 0002:0040ADBC    65 0002:0040ADE2
    66 0002:0040ADFD    68 0002:0040AE1D    73 0002:0040AE73    76 0002:0040AEAE
    77 0002:0040AED4    78 0002:0040AEEF    80 0002:0040AF0F    85 0002:0040AF65
    88 0002:0040AFA0    89 0002:0040AFC6    90 0002:0040AFE1    92 0002:0040B001
    97 0002:0040B057   100 0002:0040B092   101 0002:0040B0BB   102 0002:0040B0D6
   104 0002:0040B0F6   109 0002:0040B14C   112 0002:0040B187   113 0002:0040B1B0
   114 0002:0040B1CB   116 0002:0040B1EB   121 0002:0040B23B   124 0002:0040B270
   125 0002:0040B296   126 0002:0040B2AE   128 0002:0040B2CE   133 0002:0040B31E
   136 0002:0040B353   137 0002:0040B379   138 0002:0040B391   139 0002:0040B3AF
   140 0002:0040B3D0   141 0002:0040B3F6   142 0002:0040B414   146 0002:0040B429
   147 0002:0040B440   148 0002:0040B44B   149 0002:0040B462   150 0002:0040B475
   151 0002:0040B491   152 0002:0040B4A4   153 0002:0040B4B7   154 0002:0040B4CA
   155 0002:0040B4DD   159 0002:0040B50C   162 0002:0040B51E   164 0002:0040B52A
   170 0002:0040B543   171 0002:0040B5A7   172 0002:0040B5B5   174 0002:0040B5CE
   175 0002:0040B605   176 0002:0040B639   178 0002:0040B679   179 0002:0040B683
   185 0002:0040B688   187 0002:0040B698   188 0002:0040B6A4   189 0002:0040B6B9
   191 0002:0040B6C0   193 0002:0040B6D2   195 0002:0040B6D8   196 0002:0040B6F7
   198 0002:0040B708   199 0002:0040B724   201 0002:0040B747   202 0002:0040B752
   236 0002:0040B75C   238 0002:0040B76C   239 0002:0040B778   263 0002:0040B780
   265 0002:0040B790   266 0002:0040B7A2   268 0002:0040B7A8   270 0002:0040B7B7
   271 0002:0040B7C6   273 0002:0040B7CC   275 0002:0040B7DC   276 0002:0040B7F1
   278 0002:0040B7F8   280 0002:0040B808   281 0002:0040B81D   283 0002:0040B824
   285 0002:0040B834   286 0002:0040B849   288 0002:0040B850   290 0002:0040B860
   291 0002:0040B875   293 0002:0040B87C   295 0002:0040B88B   296 0002:0040B89A
   298 0002:0040B8A0   300 0002:0040B8AF   301 0002:0040B8BE   303 0002:0040B8C4
   305 0002:0040B8D5   306 0002:0040B8E4   307 0002:0040B936   309 0002:0040B93C
   311 0002:0040B94D   312 0002:0040B99D   313 0002:0040B9AF   315 0002:0040B9B8
   319 0002:0040B9EC   320 0002:0040BA0D   324 0002:0040BA5B    12 0002:0040BA78
    14 0002:0040BA7B

Line numbers for D:\Desen\VisualCaf\PowerCase\ContextoDialog$SymWindow.obj(ContextoDialog.java) segment _TEXT

   221 0002:0040BAA0   223 0002:0040BAB1   224 0002:0040BABD   225 0002:0040BAC6
   226 0002:0040BADE   228 0002:0040BAE4   230 0002:0040BAF5   231 0002:0040BB01
   232 0002:0040BB0A   233 0002:0040BB22   219 0002:0040BB28    12 0002:0040BB45
     0 0002:0040BB4A

Line numbers for D:\Desen\VisualCaf\PowerCase\ContextoDialog$SymAction.obj(ContextoDialog.java) segment _TEXT

   243 0002:0040BB50   245 0002:0040BB62   246 0002:0040BB6E   247 0002:0040BB7F
   248 0002:0040BB96   249 0002:0040BBA8   250 0002:0040BBBF   251 0002:0040BBD1
   252 0002:0040BBE8   253 0002:0040BBFA   254 0002:0040BC11   255 0002:0040BC23
   256 0002:0040BC37   257 0002:0040BC49   258 0002:0040BC5D   259 0002:0040BC6F
   260 0002:0040BC81   241 0002:0040BC88    12 0002:0040BCA5     0 0002:0040BCAA

Line numbers for D:\Desen\VisualCaf\PowerCase\EntidadesDialog.obj(EntidadesDialog.java) segment _TEXT

    11 0002:0040BCB0    16 0002:0040BCC1    17 0002:0040BCD3    18 0002:0040BCDC
    19 0002:0040BCF4    20 0002:0040BD00    22 0002:0040BD1E    23 0002:0040BD2A
    24 0002:0040BD3C    25 0002:0040BD40    29 0002:0040BD51    31 0002:0040BD68
    32 0002:0040BD85    34 0002:0040BD98    35 0002:0040BDAA    36 0002:0040BDB8
    37 0002:0040BDBC    42 0002:0040BDCD    43 0002:0040BDDF    45 0002:0040BDE8
    47 0002:0040BDFE    49 0002:0040BE27    50 0002:0040BE33    51 0002:0040BE46
    53 0002:0040BE4C    57 0002:0040BE5D    59 0002:0040BE6C    60 0002:0040BE7E
    62 0002:0040BE84    63 0002:0040BEA3    65 0002:0040BEB7    67 0002:0040BECC
    68 0002:0040BED0    70 0002:0040BEE1    72 0002:0040BEEC    73 0002:0040BEF8
    74 0002:0040BF03    75 0002:0040BF0C    77 0002:0040BF1F    79 0002:0040BF6D
    81 0002:0040BF74    83 0002:0040BF86   165 0002:0040BF92    91 0002:0040BF9D
    92 0002:0040BFB3    93 0002:0040BFC0    94 0002:0040BFD8    95 0002:0040BFFC
    96 0002:0040C01A    97 0002:0040C028    98 0002:0040C042    99 0002:0040C065
   100 0002:0040C080   101 0002:0040C096   102 0002:0040C0B0   103 0002:0040C0D3
   104 0002:0040C0E3   105 0002:0040C0FE   106 0002:0040C11A   107 0002:0040C137
   108 0002:0040C160   109 0002:0040C170   110 0002:0040C18B   111 0002:0040C1A7
   112 0002:0040C1C4   113 0002:0040C1ED   114 0002:0040C1FD   115 0002:0040C218
   116 0002:0040C234   117 0002:0040C251   118 0002:0040C27A   119 0002:0040C28A
   120 0002:0040C2A5   121 0002:0040C2C1   122 0002:0040C2DE   123 0002:0040C307
   124 0002:0040C317   125 0002:0040C32C   129 0002:0040C339   130 0002:0040C350
   131 0002:0040C35B   132 0002:0040C372   133 0002:0040C381   134 0002:0040C390
   135 0002:0040C3A2   136 0002:0040C3B4   137 0002:0040C3CB   138 0002:0040C3D7
   140 0002:0040C3EC   142 0002:0040C3F4   145 0002:0040C406   147 0002:0040C412
   153 0002:0040C42B   154 0002:0040C48F   155 0002:0040C49D   157 0002:0040C4B6
   158 0002:0040C4ED   159 0002:0040C521   161 0002:0040C561   162 0002:0040C56B
   168 0002:0040C570   170 0002:0040C580   171 0002:0040C58C   172 0002:0040C5A1
   179 0002:0040C5A8   181 0002:0040C5BA   183 0002:0040C5C0   184 0002:0040C5DF
   186 0002:0040C5F0   187 0002:0040C60C   189 0002:0040C62F   190 0002:0040C63A
   218 0002:0040C644   220 0002:0040C654   221 0002:0040C660   241 0002:0040C668
   243 0002:0040C677   244 0002:0040C680   246 0002:0040C684   248 0002:0040C693
   249 0002:0040C69C   250 0002:0040C6A0   252 0002:0040C6AF   253 0002:0040C6B8
   255 0002:0040C6BC   257 0002:0040C6CB   258 0002:0040C6D4   260 0002:0040C6D8
   262 0002:0040C6E7   263 0002:0040C6F0   265 0002:0040C6F4   267 0002:0040C703
   268 0002:0040C70C   280 0002:0040C710   282 0002:0040C720   283 0002:0040C73A
   285 0002:0040C740   289 0002:0040C774   290 0002:0040C795   294 0002:0040C7E3

Line numbers for D:\Desen\VisualCaf\PowerCase\EntidadesDialog$SymWindow.obj(EntidadesDialog.java) segment _TEXT

   203 0002:0040C800   205 0002:0040C811   206 0002:0040C81D   207 0002:0040C826
   208 0002:0040C83E   210 0002:0040C844   212 0002:0040C855   213 0002:0040C861
   214 0002:0040C86A   215 0002:0040C882   201 0002:0040C888     8 0002:0040C8A5
     0 0002:0040C8AA

Line numbers for D:\Desen\VisualCaf\PowerCase\EntidadesDialog$SymAction.obj(EntidadesDialog.java) segment _TEXT

   225 0002:0040C8B0   227 0002:0040C8C2   228 0002:0040C8CE   229 0002:0040C8DF
   230 0002:0040C8F6   231 0002:0040C908   232 0002:0040C91F   233 0002:0040C931
   234 0002:0040C945   235 0002:0040C957   236 0002:0040C96B   237 0002:0040C97D
   238 0002:0040C98F   223 0002:0040C998     8 0002:0040C9B5     0 0002:0040C9BA

Line numbers for D:\Desen\VisualCaf\PowerCase\EntidadesDialog$SymMouse.obj(EntidadesDialog.java) segment _TEXT

   272 0002:0040C9C0   274 0002:0040C9D2   275 0002:0040C9DE   276 0002:0040C9EF
   277 0002:0040CA01   270 0002:0040CA08     8 0002:0040CA25     0 0002:0040CA2A

Line numbers for D:\Desen\VisualCaf\PowerCase\EventosDialog.obj(EventosDialog.java) segment _TEXT

    16 0002:0040CA30    22 0002:0040CA41    23 0002:0040CA54    26 0002:0040CA5D
    27 0002:0040CA72    28 0002:0040CA7A    29 0002:0040CA90    32 0002:0040CA98
    34 0002:0040CAAD    35 0002:0040CAC3    37 0002:0040CACB    39 0002:0040CAFD
    41 0002:0040CB09    43 0002:0040CB10    49 0002:0040CB22    50 0002:0040CB34
    52 0002:0040CB3D    53 0002:0040CB53    56 0002:0040CB5C    57 0002:0040CB71
    58 0002:0040CB7A    59 0002:0040CBA2    62 0002:0040CBAB    63 0002:0040CBCF
    64 0002:0040CBDB    65 0002:0040CBE7    67 0002:0040CBEC    73 0002:0040CBFD
    75 0002:0040CC0F    76 0002:0040CC25    79 0002:0040CC31    80 0002:0040CC46
    82 0002:0040CC4A    83 0002:0040CC51    87 0002:0040CC68    88 0002:0040CC96
    89 0002:0040CC9A    93 0002:0040CCAF    94 0002:0040CCE5    95 0002:0040CCF8
    96 0002:0040CD0E    97 0002:0040CD1C    99 0002:0040CD27   101 0002:0040CD2C
   103 0002:0040CD3B   104 0002:0040CD44   109 0002:0040CD48   114 0002:0040CD5A
   116 0002:0040CD69   117 0002:0040CD7F   120 0002:0040CD88   121 0002:0040CD9D
   122 0002:0040CDA6   123 0002:0040CDBC   126 0002:0040CDC5   127 0002:0040CDDB
   128 0002:0040CDE2   131 0002:0040CDEC   132 0002:0040CE17   133 0002:0040CE34
   134 0002:0040CE52   137 0002:0040CE73   139 0002:0040CE88   141 0002:0040CE90
   143 0002:0040CEBD   146 0002:0040CEC8   147 0002:0040CED4   148 0002:0040CEE2
   150 0002:0040CEED   153 0002:0040CF43   156 0002:0040CF65   159 0002:0040CF7F
   160 0002:0040CF96   161 0002:0040CFA5   162 0002:0040CFBC   163 0002:0040CFCF
   164 0002:0040CFE6   165 0002:0040CFF5   166 0002:0040D011   167 0002:0040D027
   168 0002:0040D03D   169 0002:0040D050   170 0002:0040D063   171 0002:0040D07A
   172 0002:0040D08A   174 0002:0040D0A0   245 0002:0040D709   246 0002:0040D727
   247 0002:0040D738   248 0002:0040D750   250 0002:0040D760   176 0002:0040D0BC
   178 0002:0040D0E9   275 0002:0040D0F5   185 0002:0040D100   186 0002:0040D116
   187 0002:0040D123   188 0002:0040D13B   189 0002:0040D15F   190 0002:0040D177
   191 0002:0040D18D   192 0002:0040D1A7   193 0002:0040D1CA   194 0002:0040D1DA
   195 0002:0040D1F5   196 0002:0040D211   197 0002:0040D237   198 0002:0040D260
   199 0002:0040D26D   200 0002:0040D288   201 0002:0040D29E   202 0002:0040D2B8
   203 0002:0040D2DB   204 0002:0040D2E8   205 0002:0040D303   206 0002:0040D319
   207 0002:0040D333   208 0002:0040D356   209 0002:0040D363   210 0002:0040D37E
   211 0002:0040D394   212 0002:0040D3AE   213 0002:0040D3D1   214 0002:0040D3DE
   216 0002:0040D3FE   217 0002:0040D40E   218 0002:0040D44B   219 0002:0040D48B
   220 0002:0040D4C4   224 0002:0040D4EA   227 0002:0040D536   228 0002:0040D562
   229 0002:0040D58B   230 0002:0040D5A1   231 0002:0040D5BC   232 0002:0040D5CD
   233 0002:0040D5EA   235 0002:0040D60A   238 0002:0040D650   239 0002:0040D667
   240 0002:0040D67E   241 0002:0040D694   242 0002:0040D6BA   243 0002:0040D6D5
   244 0002:0040D6E3   252 0002:0040D77C   255 0002:0040D78E   257 0002:0040D79A
   263 0002:0040D7B3   264 0002:0040D817   265 0002:0040D825   267 0002:0040D83E
   268 0002:0040D875   269 0002:0040D8A9   271 0002:0040D8E9   272 0002:0040D8F3
   307 0002:0040D8F8   309 0002:0040D907   310 0002:0040D910   330 0002:0040D914
   332 0002:0040D923   333 0002:0040D92C   335 0002:0040D930   340 0002:0040D942
   341 0002:0040D951   342 0002:0040D963   344 0002:0040D972   345 0002:0040D988
   348 0002:0040D9A9   349 0002:0040D9B5   365 0002:0040D9BC   367 0002:0040D9CD
   369 0002:0040D9E0   370 0002:0040D9F4   373 0002:0040DA01   374 0002:0040DA13
   375 0002:0040DA1F   377 0002:0040DA28   379 0002:0040DA39   380 0002:0040DA4C
   382 0002:0040DA60   383 0002:0040DA72   384 0002:0040DA7E   386 0002:0040DA84
   388 0002:0040DA93   389 0002:0040DA9C   391 0002:0040DAA0   393 0002:0040DAAF
   394 0002:0040DAB8   396 0002:0040DABC   398 0002:0040DACB   399 0002:0040DAD4
   401 0002:0040DAD8   403 0002:0040DAE7   404 0002:0040DAF0   416 0002:0040DAF4
   418 0002:0040DB04   419 0002:0040DB1E   420 0002:0040DB24   422 0002:0040DB36
   424 0002:0040DB3C   425 0002:0040DB5B   427 0002:0040DB6C   428 0002:0040DB88
   430 0002:0040DBAB   431 0002:0040DBB6   433 0002:0040DBC0   437 0002:0040DBF4
   438 0002:0040DC15   442 0002:0040DC63

Line numbers for D:\Desen\VisualCaf\PowerCase\EventosDialog$SymWindow.obj(EventosDialog.java) segment _TEXT

   292 0002:0040DC80   294 0002:0040DC91   295 0002:0040DC9D   296 0002:0040DCA6
   297 0002:0040DCBE   299 0002:0040DCC4   301 0002:0040DCD5   302 0002:0040DCE1
   303 0002:0040DCEA   304 0002:0040DD02   290 0002:0040DD08    12 0002:0040DD25
     0 0002:0040DD2A

Line numbers for D:\Desen\VisualCaf\PowerCase\EventosDialog$SymAction.obj(EventosDialog.java) segment _TEXT

   314 0002:0040DD30   316 0002:0040DD42   317 0002:0040DD4E   318 0002:0040DD5F
   319 0002:0040DD76   320 0002:0040DD88   321 0002:0040DD9F   322 0002:0040DDB1
   323 0002:0040DDC5   324 0002:0040DDD7   325 0002:0040DDEB   326 0002:0040DDFD
   327 0002:0040DE0F   312 0002:0040DE18    12 0002:0040DE35     0 0002:0040DE3A

Line numbers for D:\Desen\VisualCaf\PowerCase\EventosDialog$SymItem.obj(EventosDialog.java) segment _TEXT

   353 0002:0040DE40   355 0002:0040DE52   356 0002:0040DE5E   357 0002:0040DE6F
   358 0002:0040DE83   359 0002:0040DE95   360 0002:0040DEA9   361 0002:0040DEBB
   362 0002:0040DECD   351 0002:0040DED4    12 0002:0040DEF1     0 0002:0040DEF6

Line numbers for D:\Desen\VisualCaf\PowerCase\EventosDialog$SymMouse.obj(EventosDialog.java) segment _TEXT

   408 0002:0040DEFC   410 0002:0040DF0E   411 0002:0040DF1A   412 0002:0040DF2B
   413 0002:0040DF3D   406 0002:0040DF44    12 0002:0040DF61     0 0002:0040DF66

Line numbers for D:\Desen\VisualCaf\PowerCase\EditarEventoDialog.obj(EditarEventoDialog.java) segment _TEXT

    12 0002:0040DF6C    14 0002:0040DF7C    15 0002:0040DF88    16 0002:0040DF9D
    17 0002:0040DFA4    19 0002:0040DFB6    24 0002:0040DFC1    25 0002:0040DFCD
    27 0002:0040DFD6    30 0002:0040E026    31 0002:0040E031    33 0002:0040E040
    34 0002:0040E052    37 0002:0040E079    38 0002:0040E085    41 0002:0040E089
    42 0002:0040E09E    43 0002:0040E0B3    48 0002:0040E0C7    49 0002:0040E0E6
    50 0002:0040E101    51 0002:0040E113    54 0002:0040E11E    55 0002:0040E144
    56 0002:0040E165    60 0002:0040E18E   132 0002:0040E884   133 0002:0040E8B4
   134 0002:0040E8D8   135 0002:0040E8EE   139 0002:0040E909   140 0002:0040E920
   141 0002:0040E931   142 0002:0040E948   143 0002:0040E957   144 0002:0040E966
   145 0002:0040E97D   146 0002:0040E98C   147 0002:0040E99B   148 0002:0040E9B2
   149 0002:0040E9C1   150 0002:0040E9D9   151 0002:0040E9EB   153 0002:0040EA00
    61 0002:0040E198    63 0002:0040E1C8   178 0002:0040E1D4    71 0002:0040E1DF
    72 0002:0040E1F8    73 0002:0040E208    74 0002:0040E223    75 0002:0040E24A
    76 0002:0040E25A    78 0002:0040E277    81 0002:0040E2B6    82 0002:0040E2DF
    83 0002:0040E2FC    84 0002:0040E31B    85 0002:0040E341    86 0002:0040E365
    87 0002:0040E376    88 0002:0040E39C    89 0002:0040E3B7    90 0002:0040E3C5
    91 0002:0040E3E0    92 0002:0040E3FC    93 0002:0040E41F    94 0002:0040E448
    95 0002:0040E45B    96 0002:0040E466    97 0002:0040E481    98 0002:0040E49D
    99 0002:0040E4C3   100 0002:0040E4EC   101 0002:0040E4FF   102 0002:0040E50A
   103 0002:0040E525   104 0002:0040E541   105 0002:0040E567   106 0002:0040E590
   107 0002:0040E5A3   108 0002:0040E5AE   109 0002:0040E5C9   110 0002:0040E5E5
   111 0002:0040E60B   112 0002:0040E634   113 0002:0040E647   114 0002:0040E662
   115 0002:0040E678   116 0002:0040E69B   117 0002:0040E6BE   118 0002:0040E6D1
   119 0002:0040E6EC   120 0002:0040E708   121 0002:0040E728   122 0002:0040E751
   123 0002:0040E767   124 0002:0040E782   125 0002:0040E796   126 0002:0040E7B3
   127 0002:0040E7E3   128 0002:0040E804   129 0002:0040E81A   130 0002:0040E84A
   131 0002:0040E86E   155 0002:0040EA1C   158 0002:0040EA2E   160 0002:0040EA3A
   166 0002:0040EA53   167 0002:0040EAB7   168 0002:0040EAC5   170 0002:0040EADE
   171 0002:0040EB15   172 0002:0040EB49   174 0002:0040EB89   175 0002:0040EB93
   214 0002:0040EB98   216 0002:0040EBA8   217 0002:0040EBB4   233 0002:0040EBBC
   236 0002:0040EBCE   237 0002:0040EBE1   240 0002:0040EBF5   241 0002:0040EC0A
   243 0002:0040EC2D   244 0002:0040EC57   245 0002:0040EC73   251 0002:0040EC8F
   253 0002:0040EC9F   254 0002:0040ECAA   256 0002:0040ECB4   258 0002:0040ECC5
   260 0002:0040ECD6   261 0002:0040ECE4   275 0002:0040ECEC   277 0002:0040ECFD
   278 0002:0040ED10   280 0002:0040ED24   281 0002:0040ED36   283 0002:0040ED3C
   285 0002:0040ED4D   287 0002:0040ED60   288 0002:0040ED74   291 0002:0040ED81
   292 0002:0040ED93   319 0002:0040ED9C   321 0002:0040EDAB   322 0002:0040EDBA
   324 0002:0040EDC0   326 0002:0040EDD0   327 0002:0040EDE4   329 0002:0040EDEC
   331 0002:0040EDFB   332 0002:0040EE0A   334 0002:0040EE10   336 0002:0040EE20
   337 0002:0040EE34   339 0002:0040EE3C   341 0002:0040EE4B   342 0002:0040EE5A
   344 0002:0040EE60   346 0002:0040EE70   347 0002:0040EE84   349 0002:0040EE8C
   353 0002:0040EEC0   354 0002:0040EEE1   358 0002:0040EF2F   359 0002:0040EF4C
   361 0002:0040EF5E   363 0002:0040EF64   364 0002:0040EF83   366 0002:0040EF94
   367 0002:0040EFB0   369 0002:0040EFD3   370 0002:0040EFDE

Line numbers for D:\Desen\VisualCaf\PowerCase\EditarEventoDialog$SymWindow.obj(EditarEventoDialog.java) segment _TEXT

   206 0002:0040EFE8   208 0002:0040EFF9   209 0002:0040F005   210 0002:0040F00E
   211 0002:0040F026   204 0002:0040F02C     8 0002:0040F049     0 0002:0040F04E

Line numbers for D:\Desen\VisualCaf\PowerCase\EditarEventoDialog$SymAction.obj(EditarEventoDialog.java) segment _TEXT

   221 0002:0040F054   223 0002:0040F066   224 0002:0040F072   225 0002:0040F083
   226 0002:0040F097   227 0002:0040F0A9   228 0002:0040F0BD   229 0002:0040F0CF
   230 0002:0040F0E1   219 0002:0040F0E8     8 0002:0040F105     0 0002:0040F10A

Line numbers for D:\Desen\VisualCaf\PowerCase\EditarEventoDialog$SymItem.obj(EditarEventoDialog.java) segment _TEXT

   265 0002:0040F110   267 0002:0040F122   268 0002:0040F12E   269 0002:0040F13F
   270 0002:0040F153   271 0002:0040F165   272 0002:0040F177   263 0002:0040F180
     8 0002:0040F19D     0 0002:0040F1A2

Line numbers for D:\Desen\VisualCaf\PowerCase\EditarEventoDialog$SymFocus.obj(EditarEventoDialog.java) segment _TEXT

   296 0002:0040F1A8   298 0002:0040F1BA   299 0002:0040F1C6   300 0002:0040F1D7
   301 0002:0040F1EB   302 0002:0040F1FD   303 0002:0040F211   304 0002:0040F223
   305 0002:0040F235   307 0002:0040F23C   309 0002:0040F24E   310 0002:0040F25A
   311 0002:0040F26B   312 0002:0040F27F   313 0002:0040F291   314 0002:0040F2A5
   315 0002:0040F2B7   316 0002:0040F2C9   294 0002:0040F2D0     8 0002:0040F2ED
     0 0002:0040F2F2

Line numbers for D:\Desen\VisualCaf\PowerCase\DiagramaCanvas.obj(DiagramaCanvas.java) segment _TEXT

     6 0002:0040F2F8    12 0002:0040F309    13 0002:0040F329    15 0002:0040F335
    16 0002:0040F340    18 0002:0040F344    21 0002:0040F35A    22 0002:0040F36D
    23 0002:0040F380    24 0002:0040F390    25 0002:0040F39E    27 0002:0040F3A4
    33 0002:0040F3D1    37 0002:0040F3E2    38 0002:0040F3F8    39 0002:0040F404
    40 0002:0040F41B    45 0002:0040F437    46 0002:0040F44C    54 0002:0040F46E
    55 0002:0040F48A    56 0002:0040F49F    61 0002:0040F4CB    66 0002:0040F4F1
    67 0002:0040F506    70 0002:0040F518    75 0002:0040F53E    77 0002:0040F549
    81 0002:0040F56F    82 0002:0040F599    83 0002:0040F5B0    84 0002:0040F5C3
    85 0002:0040F5D3    86 0002:0040F5E1    87 0002:0040F5FC    91 0002:0040F60E
    93 0002:0040F64A    95 0002:0040F657    96 0002:0040F663    98 0002:0040F676
    99 0002:0040F686   100 0002:0040F694   102 0002:0040F69C   106 0002:0040F6AD
   107 0002:0040F6BC   111 0002:0040F6C0   115 0002:0040F6F5   118 0002:0040F713
   122 0002:0040F750   126 0002:0040F78A   130 0002:0040F7C4   136 0002:0040F7FC
   138 0002:0040F808   140 0002:0040F80C   142 0002:0040F81C   143 0002:0040F82C
   147 0002:0040F834   151 0002:0040F845   152 0002:0040F858   158 0002:0040F85C
   160 0002:0040F865   162 0002:0040F86C   164 0002:0040F874   170 0002:0040F885
   171 0002:0040F8A5   173 0002:0040F8B1   174 0002:0040F8BC   176 0002:0040F8C0
   179 0002:0040F8D6   180 0002:0040F8E9   181 0002:0040F8FC   182 0002:0040F90C
   183 0002:0040F91A   184 0002:0040F920   187 0002:0040F92F   188 0002:0040F934
   192 0002:0040F945   194 0002:0040F954   196 0002:0040F958   201 0002:0040F971
   202 0002:0040F9A0   203 0002:0040F9A4   207 0002:0040F9B6   209 0002:0040F9C5
   211 0002:0040F9CE   213 0002:0040F9DD   221 0002:0040F9F7   226 0002:0040FA28
   229 0002:0040FA5C   230 0002:0040FA68   234 0002:0040FA70   237 0002:0040FA81
   239 0002:0040FA88   242 0002:0040FA95   243 0002:0040FAB3   248 0002:0040FAC1
   249 0002:0040FADF   251 0002:0040FAEC   260 0002:0040FAF4   262 0002:0040FB05
   264 0002:0040FB11   266 0002:0040FB1A   267 0002:0040FB58   270 0002:0040FB61
   271 0002:0040FB76   272 0002:0040FB95   274 0002:0040FBAD   275 0002:0040FBC9
   276 0002:0040FBD0   278 0002:0040FBE6   279 0002:0040FBEF   280 0002:0040FBF8
   284 0002:0040FC01   285 0002:0040FC18   286 0002:0040FC2C   287 0002:0040FC43
   290 0002:0040FC51   291 0002:0040FC61   310 0002:0040FC68   315 0002:0040FC8F
   317 0002:0040FCAE   318 0002:0040FCBE   319 0002:0040FCD1   321 0002:0040FCDD
   325 0002:0040FCEB   329 0002:0040FD05   333 0002:0040FD1F   337 0002:0040FD39
   340 0002:0040FD51   342 0002:0040FD58   344 0002:0040FD67   345 0002:0040FD6E
   357 0002:0040FD74   363 0002:0040FD8F   365 0002:0040FD9B   366 0002:0040FDAE
   367 0002:0040FDB7   369 0002:0040FDB9   370 0002:0040FDCC   372 0002:0040FDD8
     4 0002:0040FDE0   231 0002:0040FDE3   232 0002:0040FDFE

Line numbers for D:\Desen\VisualCaf\PowerCase\DiagramaCanvas$DiagramaCanvasMouseListener.obj(DiagramaCanvas.java) segment _TEXT

   295 0002:0040FE18   297 0002:0040FE29   298 0002:0040FE35   299 0002:0040FE3E
   300 0002:0040FE56   302 0002:0040FE5C   304 0002:0040FE6D   305 0002:0040FE79
   306 0002:0040FE82   307 0002:0040FE9A   293 0002:0040FEA0     4 0002:0040FEBD
     0 0002:0040FEC2

Line numbers for D:\Desen\VisualCaf\PowerCase\DiagramaCanvas$DiagramaCanvasMouseMotionListener.obj(DiagramaCanvas.java) segment _TEXT

   349 0002:0040FEC8   351 0002:0040FED9   352 0002:0040FEE5   353 0002:0040FEEE
   354 0002:0040FF06   347 0002:0040FF0C     4 0002:0040FF29     0 0002:0040FF2E

Line numbers for D:\Desen\VisualCaf\PowerCase\EditarEntidadeDialog.obj(EditarEntidadeDialog.java) segment _TEXT

    13 0002:0040FF34    15 0002:0040FF43    16 0002:0040FF52    17 0002:0040FF54
    19 0002:0040FF63    20 0002:0040FF6C    22 0002:0040FF70    24 0002:0040FF81
    25 0002:0040FFA9    26 0002:0040FFB0    28 0002:0040FFC2    30 0002:0040FFCD
    32 0002:0040FFD9    33 0002:00410030    35 0002:00410051    36 0002:00410058
    38 0002:0041006A   110 0002:00410076    46 0002:00410081    47 0002:00410097
    48 0002:004100A4    49 0002:004100BC    50 0002:004100E0    51 0002:00410103
    52 0002:0041011E    53 0002:0041012E    54 0002:00410149    55 0002:0041016A
    56 0002:0041017A    57 0002:00410195    58 0002:004101B1    59 0002:004101CE
    60 0002:004101F1    61 0002:004101FE    62 0002:00410219    63 0002:00410235
    64 0002:0041024F    65 0002:00410278    66 0002:00410288    67 0002:004102A3
    68 0002:004102BF    69 0002:004102DC    70 0002:00410305    71 0002:00410315
    72 0002:0041032A    76 0002:00410337    77 0002:0041034E    78 0002:00410359
    79 0002:00410370    80 0002:0041037F    81 0002:0041038E    82 0002:004103A0
    83 0002:004103B7    85 0002:004103C6    87 0002:004103D0    90 0002:004103E2
    92 0002:004103EE    98 0002:00410407    99 0002:0041046B   100 0002:00410479
   102 0002:00410492   103 0002:004104C9   104 0002:004104FD   106 0002:0041053D
   107 0002:00410547   113 0002:0041054C   115 0002:0041055C   116 0002:00410568
   117 0002:0041057D   124 0002:00410584   126 0002:00410596   128 0002:0041059C
   129 0002:004105BB   131 0002:004105CC   132 0002:004105E8   134 0002:0041060B
   135 0002:00410616   162 0002:00410620   164 0002:00410630   165 0002:0041063C
   181 0002:00410644   183 0002:00410653   184 0002:0041065C   186 0002:00410660
   188 0002:00410671   189 0002:00410681   190 0002:0041068F   192 0002:00410698
   194 0002:004106A7   195 0002:004106B0   197 0002:004106B4   201 0002:004106E8
   202 0002:00410709   206 0002:00410757   225 0002:00410774   227 0002:00410783
   228 0002:00410792   230 0002:00410798   232 0002:004107A8   233 0002:004107BC

Line numbers for D:\Desen\VisualCaf\PowerCase\EditarEntidadeDialog$SymWindow.obj(EditarEntidadeDialog.java) segment _TEXT

   147 0002:004107C4   149 0002:004107D5   150 0002:004107E1   151 0002:004107EA
   152 0002:00410802   154 0002:00410808   156 0002:00410819   157 0002:00410825
   158 0002:0041082E   159 0002:00410846   145 0002:0041084C    11 0002:00410869
     0 0002:0041086E

Line numbers for D:\Desen\VisualCaf\PowerCase\EditarEntidadeDialog$SymAction.obj(EditarEntidadeDialog.java) segment _TEXT

   169 0002:00410874   171 0002:00410886   172 0002:00410892   173 0002:004108A3
   174 0002:004108B7   175 0002:004108C9   176 0002:004108DD   177 0002:004108EF
   178 0002:00410901   167 0002:00410908    11 0002:00410925     0 0002:0041092A

Line numbers for D:\Desen\VisualCaf\PowerCase\EditarEntidadeDialog$SymFocus.obj(EditarEntidadeDialog.java) segment _TEXT

   210 0002:00410930   212 0002:00410942   213 0002:0041094E   214 0002:0041095F
   215 0002:00410971   217 0002:00410978   219 0002:0041098A   220 0002:00410996
   221 0002:004109A7   222 0002:004109B9   208 0002:004109C0    11 0002:004109DD
     0 0002:004109E2

Line numbers for D:\Desen\VisualCaf\PowerCase\EditarFluxoDialog.obj(EditarFluxoDialog.java) segment _TEXT

    13 0002:004109E8    15 0002:004109F7    16 0002:00410A06    17 0002:00410A08
    19 0002:00410A17    20 0002:00410A20    22 0002:00410A24    24 0002:00410A35
    26 0002:00410A5D    27 0002:00410A73    28 0002:00410A87    29 0002:00410A9D
    31 0002:00410AB4    32 0002:00410AC9    33 0002:00410AD0    35 0002:00410AE2
    37 0002:00410AED    39 0002:00410AF9    40 0002:00410B50    42 0002:00410B6E
    45 0002:00410B89    48 0002:00410BA0    51 0002:00410BB7    56 0002:00410BCF
    57 0002:00410BD8    59 0002:00410BEA   141 0002:00410BF6    67 0002:00410C01
    68 0002:00410C17    69 0002:00410C24    70 0002:00410C3C    71 0002:00410C60
    72 0002:00410C83    73 0002:00410C9E    74 0002:00410CAE    75 0002:00410CC9
    76 0002:00410CEA    77 0002:00410CFA    78 0002:00410D15    79 0002:00410D31
    80 0002:00410D4E    81 0002:00410D71    82 0002:00410D7E    83 0002:00410D99
    84 0002:00410DB5    85 0002:00410DCF    86 0002:00410DF8    87 0002:00410E08
    88 0002:00410E23    89 0002:00410E3F    90 0002:00410E5C    91 0002:00410E85
    92 0002:00410E95    93 0002:00410EB0    94 0002:00410EE1    95 0002:00410EFF
    96 0002:00410F0F    97 0002:00410F3D    98 0002:00410F5B    99 0002:00410F6B
   100 0002:00410F99   101 0002:00410FBA   102 0002:00410FCA   103 0002:00410FDF
   107 0002:00410FEC   108 0002:00411003   109 0002:0041100E   110 0002:00411025
   111 0002:00411034   112 0002:00411043   113 0002:00411055   114 0002:0041106C
   116 0002:0041107B   118 0002:00411084   121 0002:00411096   123 0002:004110A2
   129 0002:004110BB   130 0002:0041111F   131 0002:0041112D   133 0002:00411146
   134 0002:0041117D   135 0002:004111B1   137 0002:004111F1   138 0002:004111FB
   144 0002:00411200   146 0002:00411210   147 0002:0041121C   148 0002:00411231
   155 0002:00411238   157 0002:0041124A   159 0002:00411250   160 0002:0041126F
   162 0002:00411280   163 0002:0041129C   165 0002:004112BF   166 0002:004112CA
   197 0002:004112D4   199 0002:004112E4   200 0002:004112F0   216 0002:004112F8
   218 0002:00411307   219 0002:00411310   221 0002:00411314   223 0002:00411325
   224 0002:00411335   225 0002:00411343   227 0002:0041134C   229 0002:0041135B
   230 0002:00411364   232 0002:00411368   236 0002:0041139C   237 0002:004113BD
   241 0002:0041140B   260 0002:00411428   262 0002:00411437   263 0002:00411446
   265 0002:0041144C   267 0002:0041145C   268 0002:00411470

Line numbers for D:\Desen\VisualCaf\PowerCase\EditarFluxoDialog$SymWindow.obj(EditarFluxoDialog.java) segment _TEXT

   182 0002:00411478   184 0002:00411489   185 0002:00411495   186 0002:0041149E
   187 0002:004114B6   189 0002:004114BC   191 0002:004114CD   192 0002:004114D9
   193 0002:004114E2   194 0002:004114FA   180 0002:00411500    11 0002:0041151D
     0 0002:00411522

Line numbers for D:\Desen\VisualCaf\PowerCase\EditarFluxoDialog$SymAction.obj(EditarFluxoDialog.java) segment _TEXT

   204 0002:00411528   206 0002:0041153A   207 0002:00411546   208 0002:00411557
   209 0002:0041156B   210 0002:0041157D   211 0002:00411591   212 0002:004115A3
   213 0002:004115B5   202 0002:004115BC    11 0002:004115D9     0 0002:004115DE

Line numbers for D:\Desen\VisualCaf\PowerCase\EditarFluxoDialog$SymFocus.obj(EditarFluxoDialog.java) segment _TEXT

   245 0002:004115E4   247 0002:004115F6   248 0002:00411602   249 0002:00411613
   250 0002:00411625   252 0002:0041162C   254 0002:0041163E   255 0002:0041164A
   256 0002:0041165B   257 0002:0041166D   243 0002:00411674    11 0002:00411691
     0 0002:00411696

Line numbers for D:\Desen\VisualCaf\PowerCase\Yourdon\ListaFluxos.obj(Yourdon\ListaFluxos.java) segment _TEXT

     7 0002:0041169C     9 0002:004116AC    10 0002:004116B9    11 0002:004116C0
    13 0002:004116CF    14 0002:004116D7    15 0002:004116DC    17 0002:004116EC
    18 0002:004116FB    19 0002:00411700    23 0002:00411711    24 0002:0041172B
    26 0002:0041173B

Line numbers for D:\Desen\VisualCaf\PowerCase\Yourdon\Fluxo.obj(Yourdon\Fluxo.java) segment _TEXT

     8 0002:00411744    10 0002:00411754    11 0002:0041175D    12 0002:00411769
    13 0002:00411770    15 0002:0041177F    16 0002:00411785    17 0002:0041178C
    20 0002:0041179E

Line numbers for D:\Desen\VisualCaf\PowerCase\Yourdon\SimboloFluxo.obj(Yourdon\SimboloFluxo.java) segment _TEXT

     8 0002:004117A0    10 0002:004117B2    14 0002:004117C0    15 0002:004117C9
    17 0002:004117CF    18 0002:004117FF    20 0002:0041182A    21 0002:0041184C
    24 0002:00411854    31 0002:00411866    32 0002:0041187C    33 0002:0041188E
    35 0002:004118A5    36 0002:004118B5    37 0002:004118BC    39 0002:004118C2
    40 0002:004118DF    42 0002:004118F4    43 0002:00411907    44 0002:0041190E
    46 0002:00411914    47 0002:0041192F    52 0002:00411944    53 0002:00411964
    54 0002:00411978    56 0002:0041198C    59 0002:0041199F    62 0002:004119AE
    63 0002:004119B6    66 0002:004119FB    67 0002:00411A1F    68 0002:00411A34
    69 0002:00411A49    72 0002:00411A5F    73 0002:00411A73    76 0002:00411A8A
    77 0002:00411AA4    78 0002:00411AC6   118 0002:00411D94   119 0002:00411DB1
   120 0002:00411DC7   121 0002:00411E1A   123 0002:00411E6C   124 0002:00411EB1
   129 0002:00411EF9   130 0002:00411F3E   132 0002:00411F88   133 0002:00411FD0
   135 0002:00412019   136 0002:0041203B   137 0002:00412054    79 0002:00411AD0
    81 0002:00411AE2    85 0002:00411AEA    86 0002:00411AF5    88 0002:00411B01
    89 0002:00411B2D    91 0002:00411B55    92 0002:00411B63    93 0002:00411B6C
    95 0002:00411B7F    96 0002:00411BA4    98 0002:00411BC9   101 0002:00411BD9
   102 0002:00411BDF   104 0002:00411BEE   105 0002:00411C0B   106 0002:00411C21
   107 0002:00411C75   109 0002:00411CC6   110 0002:00411D18   112 0002:00411D6E
   115 0002:00411D7F   116 0002:00411D85   118 0002:00411D94   138 0002:0041205C
   140 0002:0041206D   141 0002:00412073   143 0002:0041208D   144 0002:004120A2
     5 0002:004120A8     7 0002:004120AB

Line numbers for D:\Desen\VisualCaf\PowerCase\Yourdon\ListaEventos.obj(Yourdon\ListaEventos.java) segment _TEXT

     7 0002:004120D4    12 0002:004120E5    13 0002:004120F5    14 0002:004120FC
    16 0002:00412104    17 0002:00412116    19 0002:0041211B    20 0002:0041211E
    21 0002:00412124    23 0002:00412134    24 0002:00412141    25 0002:00412148
    27 0002:00412158    28 0002:0041215F    29 0002:0041216C    30 0002:00412174
    36 0002:004121A8    38 0002:004121BB    39 0002:004121DC    40 0002:004121E7
    45 0002:00412204    47 0002:00412217    48 0002:00412219    49 0002:00412234
    53 0002:00412245    54 0002:00412265    56 0002:00412275    58 0002:0041227C
    60 0002:0041228B    61 0002:00412293

Line numbers for D:\Desen\VisualCaf\PowerCase\EditarProcessoDialog.obj(EditarProcessoDialog.java) segment _TEXT

    12 0002:00412298    14 0002:004122A7    15 0002:004122B6    16 0002:004122B8
    18 0002:004122C7    19 0002:004122D0    21 0002:004122D4    23 0002:00412301
    27 0002:00412316    31 0002:00412349    34 0002:0041235E    35 0002:00412389
    36 0002:004123A4    38 0002:004123B6    40 0002:004123C1    42 0002:004123CD
    44 0002:004123D5    45 0002:004123F0    48 0002:00412442    50 0002:00412492
    51 0002:004124BE    53 0002:004124EC    54 0002:004124F4    56 0002:00412506
   135 0002:00412512    64 0002:0041251D    65 0002:00412533    66 0002:00412540
    67 0002:00412558    68 0002:0041257C    69 0002:0041259F    70 0002:004125BA
    71 0002:004125CA    72 0002:004125E5    73 0002:00412606    74 0002:00412616
    75 0002:00412631    76 0002:0041264D    77 0002:0041266A    78 0002:0041268D
    79 0002:0041269A    80 0002:004126B5    81 0002:004126D1    82 0002:004126EB
    83 0002:00412714    84 0002:00412724    85 0002:0041273F    86 0002:0041275B
    87 0002:00412778    88 0002:004127A1    89 0002:004127B1    90 0002:004127CC
    91 0002:004127EA    92 0002:004127FA    93 0002:00412820    94 0002:0041283E
    95 0002:0041284E    96 0002:00412863   100 0002:00412870   101 0002:00412887
   102 0002:00412892   103 0002:004128A9   104 0002:004128B8   105 0002:004128C7
   106 0002:004128D9   107 0002:004128F0   108 0002:004128FC   110 0002:00412911
   112 0002:00412918   115 0002:0041292A   117 0002:00412936   123 0002:0041294F
   124 0002:004129B3   125 0002:004129C1   127 0002:004129DA   128 0002:00412A11
   129 0002:00412A45   131 0002:00412A85   132 0002:00412A8F   138 0002:00412A94
   140 0002:00412AA4   141 0002:00412AB0   142 0002:00412AC5   149 0002:00412ACC
   151 0002:00412ADE   153 0002:00412AE4   154 0002:00412B03   156 0002:00412B14
   157 0002:00412B30   159 0002:00412B53   160 0002:00412B5E   189 0002:00412B68
   191 0002:00412B78   192 0002:00412B84   208 0002:00412B8C   210 0002:00412B9B
   211 0002:00412BA4   213 0002:00412BA8   215 0002:00412BB9   216 0002:00412BC9
   217 0002:00412BD7   219 0002:00412BE0   221 0002:00412BEF   222 0002:00412BF8
   224 0002:00412BFC   228 0002:00412C30   229 0002:00412C51   233 0002:00412C9F
   256 0002:00412CBC   258 0002:00412CCB   259 0002:00412CDA   261 0002:00412CE0
   263 0002:00412CEF   264 0002:00412CFE   266 0002:00412D04   268 0002:00412D14
   269 0002:00412D28   271 0002:00412D30   273 0002:00412D40   274 0002:00412D54

Line numbers for D:\Desen\VisualCaf\PowerCase\EditarProcessoDialog$SymWindow.obj(EditarProcessoDialog.java) segment _TEXT

   174 0002:00412D5C   176 0002:00412D6D   177 0002:00412D79   178 0002:00412D82
   179 0002:00412D9A   181 0002:00412DA0   183 0002:00412DB1   184 0002:00412DBD
   185 0002:00412DC6   186 0002:00412DDE   172 0002:00412DE4    10 0002:00412E01
     0 0002:00412E06

Line numbers for D:\Desen\VisualCaf\PowerCase\EditarProcessoDialog$SymAction.obj(EditarProcessoDialog.java) segment _TEXT

   196 0002:00412E0C   198 0002:00412E1E   199 0002:00412E2A   200 0002:00412E3B
   201 0002:00412E4F   202 0002:00412E61   203 0002:00412E75   204 0002:00412E87
   205 0002:00412E99   194 0002:00412EA0    10 0002:00412EBD     0 0002:00412EC2

Line numbers for D:\Desen\VisualCaf\PowerCase\EditarProcessoDialog$SymFocus.obj(EditarProcessoDialog.java) segment _TEXT

   237 0002:00412EC8   239 0002:00412EDA   240 0002:00412EE6   241 0002:00412EF7
   242 0002:00412F0B   243 0002:00412F1D   244 0002:00412F2F   246 0002:00412F38
   248 0002:00412F4A   249 0002:00412F56   250 0002:00412F67   251 0002:00412F7B
   252 0002:00412F8D   253 0002:00412F9F   235 0002:00412FA8    10 0002:00412FC5
     0 0002:00412FCA

Line numbers for D:\Desen\VisualCaf\PowerCase\Yourdon\Evento.obj(Yourdon\Evento.java) segment _TEXT

     7 0002:00412FD0     9 0002:00412FE1    10 0002:00412FEA    11 0002:00412FF3
    12 0002:00412FF9    13 0002:00413002    15 0002:00413008    17 0002:00413017
    18 0002:0041301D    19 0002:00413024    22 0002:00413036    24 0002:00413038
    26 0002:00413047    27 0002:0041304D    28 0002:00413054    31 0002:00413066
    33 0002:00413068    35 0002:00413077    36 0002:0041307D    37 0002:00413084
    40 0002:00413096

Line numbers for D:\Desen\VisualCaf\PowerCase\Yourdon\Processo.obj(Yourdon\Processo.java) segment _TEXT

     7 0002:00413098     9 0002:004130A8    11 0002:004130CA    12 0002:004130D0
    14 0002:004130E0    15 0002:004130FF    16 0002:00413104    21 0002:00413115
    25 0002:00413143    28 0002:0041316A    31 0002:00413190    32 0002:00413198
    36 0002:004131A9    37 0002:004131B6    39 0002:004131BB    41 0002:004131C6
    42 0002:004131ED    45 0002:004131FD    46 0002:00413201    48 0002:00413208
    50 0002:00413218    56 0002:00413232    58 0002:0041329B    59 0002:004132A0
    61 0002:004132B1    67 0002:004132D0    69 0002:00413316    70 0002:0041331C
    72 0002:0041332B    73 0002:00413339    74 0002:00413340    76 0002:00413352
    77 0002:0041335B    79 0002:00413366    81 0002:0041337C    83 0002:00413381
    87 0002:0041338D    88 0002:004133A4    90 0002:004133B3    91 0002:004133BC
    93 0002:004133CC    96 0002:004133EB    98 0002:004133F9    99 0002:00413400
   102 0002:00413412

Line numbers for D:\Desen\VisualCaf\PowerCase\Yourdon\SimboloProcesso.obj(Yourdon\SimboloProcesso.java) segment _TEXT

     7 0002:00413414    11 0002:00413426    12 0002:00413441    13 0002:0041345C
    15 0002:00413481    17 0002:00413496    21 0002:004134A1    22 0002:004134A8
    27 0002:004134BA    29 0002:004134CC    30 0002:004134E0    32 0002:004134F3
    33 0002:00413500    34 0002:00413508    36 0002:0041351B    37 0002:0041353D
    39 0002:00413562    40 0002:0041357F    42 0002:00413588    44 0002:00413597
    45 0002:004135AB    46 0002:004135B0    51 0002:004135C2    53 0002:004135E9
    56 0002:00413607    58 0002:00413614    59 0002:00413630    63 0002:0041367A
    64 0002:00413697    66 0002:004136A7    69 0002:004136C3    71 0002:00413702
    74 0002:0041370F    75 0002:00413717    77 0002:0041375E    78 0002:00413769
    81 0002:004137B1    82 0002:004137D5    84 0002:004137DF    85 0002:004137F3
    87 0002:0041380D    88 0002:00413817    90 0002:00413831    91 0002:0041384B
    92 0002:0041388C

Program entry point at 0001ED78 
